ARM GAS  /tmp/ccVA0YGW.s 			page 1


   1              		.cpu cortex-m3
   2              		.eabi_attribute 20, 1
   3              		.eabi_attribute 21, 1
   4              		.eabi_attribute 23, 3
   5              		.eabi_attribute 24, 1
   6              		.eabi_attribute 25, 1
   7              		.eabi_attribute 26, 1
   8              		.eabi_attribute 30, 1
   9              		.eabi_attribute 34, 1
  10              		.eabi_attribute 18, 4
  11              		.file	"stm32l1xx_hal_gpio.c"
  12              		.text
  13              	.Ltext0:
  14              		.cfi_sections	.debug_frame
  15              		.section	.text.HAL_GPIO_Init,"ax",%progbits
  16              		.align	1
  17              		.global	HAL_GPIO_Init
  18              		.syntax unified
  19              		.thumb
  20              		.thumb_func
  21              		.fpu softvfp
  23              	HAL_GPIO_Init:
  24              	.LFB64:
  25              		.file 1 "Drivers/STM32L1xx_HAL_Driver/Src/stm32l1xx_hal_gpio.c"
   1:Drivers/STM32L1xx_HAL_Driver/Src/stm32l1xx_hal_gpio.c **** /**
   2:Drivers/STM32L1xx_HAL_Driver/Src/stm32l1xx_hal_gpio.c ****   ******************************************************************************
   3:Drivers/STM32L1xx_HAL_Driver/Src/stm32l1xx_hal_gpio.c ****   * @file    stm32l1xx_hal_gpio.c
   4:Drivers/STM32L1xx_HAL_Driver/Src/stm32l1xx_hal_gpio.c ****   * @author  MCD Application Team
   5:Drivers/STM32L1xx_HAL_Driver/Src/stm32l1xx_hal_gpio.c ****   * @brief   GPIO HAL module driver.
   6:Drivers/STM32L1xx_HAL_Driver/Src/stm32l1xx_hal_gpio.c ****   *          This file provides firmware functions to manage the following 
   7:Drivers/STM32L1xx_HAL_Driver/Src/stm32l1xx_hal_gpio.c ****   *          functionalities of the General Purpose Input/Output (GPIO) peripheral:
   8:Drivers/STM32L1xx_HAL_Driver/Src/stm32l1xx_hal_gpio.c ****   *           + Initialization and de-initialization functions
   9:Drivers/STM32L1xx_HAL_Driver/Src/stm32l1xx_hal_gpio.c ****   *           + IO operation functions
  10:Drivers/STM32L1xx_HAL_Driver/Src/stm32l1xx_hal_gpio.c ****   *         
  11:Drivers/STM32L1xx_HAL_Driver/Src/stm32l1xx_hal_gpio.c ****   @verbatim
  12:Drivers/STM32L1xx_HAL_Driver/Src/stm32l1xx_hal_gpio.c ****   ==============================================================================
  13:Drivers/STM32L1xx_HAL_Driver/Src/stm32l1xx_hal_gpio.c ****                     ##### GPIO Peripheral features #####
  14:Drivers/STM32L1xx_HAL_Driver/Src/stm32l1xx_hal_gpio.c ****   ==============================================================================         
  15:Drivers/STM32L1xx_HAL_Driver/Src/stm32l1xx_hal_gpio.c ****   [..] 
  16:Drivers/STM32L1xx_HAL_Driver/Src/stm32l1xx_hal_gpio.c ****   Each port bit of the general-purpose I/O (GPIO) ports can be individually 
  17:Drivers/STM32L1xx_HAL_Driver/Src/stm32l1xx_hal_gpio.c ****   configured by software in several modes:
  18:Drivers/STM32L1xx_HAL_Driver/Src/stm32l1xx_hal_gpio.c ****   (+) Input mode 
  19:Drivers/STM32L1xx_HAL_Driver/Src/stm32l1xx_hal_gpio.c ****   (+) Analog mode
  20:Drivers/STM32L1xx_HAL_Driver/Src/stm32l1xx_hal_gpio.c ****   (+) Output mode
  21:Drivers/STM32L1xx_HAL_Driver/Src/stm32l1xx_hal_gpio.c ****   (+) Alternate function mode
  22:Drivers/STM32L1xx_HAL_Driver/Src/stm32l1xx_hal_gpio.c ****   (+) External interrupt/event lines
  23:Drivers/STM32L1xx_HAL_Driver/Src/stm32l1xx_hal_gpio.c ****  
  24:Drivers/STM32L1xx_HAL_Driver/Src/stm32l1xx_hal_gpio.c ****   [..]  
  25:Drivers/STM32L1xx_HAL_Driver/Src/stm32l1xx_hal_gpio.c ****   During and just after reset, the alternate functions and external interrupt  
  26:Drivers/STM32L1xx_HAL_Driver/Src/stm32l1xx_hal_gpio.c ****   lines are not active and the I/O ports are configured in input floating mode.
  27:Drivers/STM32L1xx_HAL_Driver/Src/stm32l1xx_hal_gpio.c ****   
  28:Drivers/STM32L1xx_HAL_Driver/Src/stm32l1xx_hal_gpio.c ****   [..]   
  29:Drivers/STM32L1xx_HAL_Driver/Src/stm32l1xx_hal_gpio.c ****   All GPIO pins have weak internal pull-up and pull-down resistors, which can be 
  30:Drivers/STM32L1xx_HAL_Driver/Src/stm32l1xx_hal_gpio.c ****   activated or not.
  31:Drivers/STM32L1xx_HAL_Driver/Src/stm32l1xx_hal_gpio.c **** 
  32:Drivers/STM32L1xx_HAL_Driver/Src/stm32l1xx_hal_gpio.c ****   [..]
  33:Drivers/STM32L1xx_HAL_Driver/Src/stm32l1xx_hal_gpio.c ****   In Output or Alternate mode, each IO can be configured on open-drain or push-pull
ARM GAS  /tmp/ccVA0YGW.s 			page 2


  34:Drivers/STM32L1xx_HAL_Driver/Src/stm32l1xx_hal_gpio.c ****   type and the IO speed can be selected depending on the VDD value.
  35:Drivers/STM32L1xx_HAL_Driver/Src/stm32l1xx_hal_gpio.c ****   
  36:Drivers/STM32L1xx_HAL_Driver/Src/stm32l1xx_hal_gpio.c ****   [..]
  37:Drivers/STM32L1xx_HAL_Driver/Src/stm32l1xx_hal_gpio.c ****   The microcontroller IO pins are connected to onboard peripherals/modules through a 
  38:Drivers/STM32L1xx_HAL_Driver/Src/stm32l1xx_hal_gpio.c ****   multiplexer that allows only one peripheral s alternate function (AF) connected 
  39:Drivers/STM32L1xx_HAL_Driver/Src/stm32l1xx_hal_gpio.c ****   to an IO pin at a time. In this way, there can be no conflict between peripherals 
  40:Drivers/STM32L1xx_HAL_Driver/Src/stm32l1xx_hal_gpio.c ****   sharing the same IO pin. 
  41:Drivers/STM32L1xx_HAL_Driver/Src/stm32l1xx_hal_gpio.c ****   
  42:Drivers/STM32L1xx_HAL_Driver/Src/stm32l1xx_hal_gpio.c ****   [..]  
  43:Drivers/STM32L1xx_HAL_Driver/Src/stm32l1xx_hal_gpio.c ****   All ports have external interrupt/event capability. To use external interrupt 
  44:Drivers/STM32L1xx_HAL_Driver/Src/stm32l1xx_hal_gpio.c ****   lines, the port must be configured in input mode. All available GPIO pins are 
  45:Drivers/STM32L1xx_HAL_Driver/Src/stm32l1xx_hal_gpio.c ****   connected to the 16 external interrupt/event lines from EXTI0 to EXTI15.
  46:Drivers/STM32L1xx_HAL_Driver/Src/stm32l1xx_hal_gpio.c ****   
  47:Drivers/STM32L1xx_HAL_Driver/Src/stm32l1xx_hal_gpio.c ****   [..]  
  48:Drivers/STM32L1xx_HAL_Driver/Src/stm32l1xx_hal_gpio.c ****   The external interrupt/event controller consists of up to 28 edge detectors 
  49:Drivers/STM32L1xx_HAL_Driver/Src/stm32l1xx_hal_gpio.c ****   (depending on products 16 lines are connected to GPIO) for generating event/interrupt
  50:Drivers/STM32L1xx_HAL_Driver/Src/stm32l1xx_hal_gpio.c ****   requests (each input line can be independently configured to select the type 
  51:Drivers/STM32L1xx_HAL_Driver/Src/stm32l1xx_hal_gpio.c ****   (interrupt or event) and the corresponding trigger event (rising or falling or both). 
  52:Drivers/STM32L1xx_HAL_Driver/Src/stm32l1xx_hal_gpio.c ****   Each line can also be masked independently. 
  53:Drivers/STM32L1xx_HAL_Driver/Src/stm32l1xx_hal_gpio.c ****    
  54:Drivers/STM32L1xx_HAL_Driver/Src/stm32l1xx_hal_gpio.c ****             ##### How to use this driver #####
  55:Drivers/STM32L1xx_HAL_Driver/Src/stm32l1xx_hal_gpio.c ****   ==============================================================================  
  56:Drivers/STM32L1xx_HAL_Driver/Src/stm32l1xx_hal_gpio.c ****   [..]
  57:Drivers/STM32L1xx_HAL_Driver/Src/stm32l1xx_hal_gpio.c ****    (#) Enable the GPIO AHB clock using the following function : __GPIOx_CLK_ENABLE(). 
  58:Drivers/STM32L1xx_HAL_Driver/Src/stm32l1xx_hal_gpio.c ****                                     
  59:Drivers/STM32L1xx_HAL_Driver/Src/stm32l1xx_hal_gpio.c ****    (#) Configure the GPIO pin(s) using HAL_GPIO_Init().
  60:Drivers/STM32L1xx_HAL_Driver/Src/stm32l1xx_hal_gpio.c ****        (++) Configure the IO mode using "Mode" member from GPIO_InitTypeDef structure
  61:Drivers/STM32L1xx_HAL_Driver/Src/stm32l1xx_hal_gpio.c ****        (++) Activate Pull-up, Pull-down resistor using "Pull" member from GPIO_InitTypeDef 
  62:Drivers/STM32L1xx_HAL_Driver/Src/stm32l1xx_hal_gpio.c ****             structure.
  63:Drivers/STM32L1xx_HAL_Driver/Src/stm32l1xx_hal_gpio.c ****        (++) In case of Output or alternate function mode selection: the speed is 
  64:Drivers/STM32L1xx_HAL_Driver/Src/stm32l1xx_hal_gpio.c ****             configured through "Speed" member from GPIO_InitTypeDef structure, 
  65:Drivers/STM32L1xx_HAL_Driver/Src/stm32l1xx_hal_gpio.c ****             the speed is configurable: Low, Medium and High.
  66:Drivers/STM32L1xx_HAL_Driver/Src/stm32l1xx_hal_gpio.c ****        (++) If alternate mode is selected, the alternate function connected to the IO
  67:Drivers/STM32L1xx_HAL_Driver/Src/stm32l1xx_hal_gpio.c ****             is configured through "Alternate" member from GPIO_InitTypeDef structure
  68:Drivers/STM32L1xx_HAL_Driver/Src/stm32l1xx_hal_gpio.c ****        (++) Analog mode is required when a pin is to be used as ADC channel 
  69:Drivers/STM32L1xx_HAL_Driver/Src/stm32l1xx_hal_gpio.c ****             or DAC output.
  70:Drivers/STM32L1xx_HAL_Driver/Src/stm32l1xx_hal_gpio.c ****        (++) In case of external interrupt/event selection the "Mode" member from 
  71:Drivers/STM32L1xx_HAL_Driver/Src/stm32l1xx_hal_gpio.c ****             GPIO_InitTypeDef structure select the type (interrupt or event) and 
  72:Drivers/STM32L1xx_HAL_Driver/Src/stm32l1xx_hal_gpio.c ****             the corresponding trigger event (rising or falling or both).
  73:Drivers/STM32L1xx_HAL_Driver/Src/stm32l1xx_hal_gpio.c ****   
  74:Drivers/STM32L1xx_HAL_Driver/Src/stm32l1xx_hal_gpio.c ****    (#) In case of external interrupt/event mode selection, configure NVIC IRQ priority 
  75:Drivers/STM32L1xx_HAL_Driver/Src/stm32l1xx_hal_gpio.c ****        mapped to the EXTI line using HAL_NVIC_SetPriority() and enable it using
  76:Drivers/STM32L1xx_HAL_Driver/Src/stm32l1xx_hal_gpio.c ****        HAL_NVIC_EnableIRQ().
  77:Drivers/STM32L1xx_HAL_Driver/Src/stm32l1xx_hal_gpio.c ****   
  78:Drivers/STM32L1xx_HAL_Driver/Src/stm32l1xx_hal_gpio.c ****    (#) HAL_GPIO_DeInit allows to set register values to their reset value. It's also 
  79:Drivers/STM32L1xx_HAL_Driver/Src/stm32l1xx_hal_gpio.c ****        recommended to use it to unconfigure pin which was used as an external interrupt 
  80:Drivers/STM32L1xx_HAL_Driver/Src/stm32l1xx_hal_gpio.c ****        or in event mode. That's the only way to reset corresponding bit in EXTI & SYSCFG 
  81:Drivers/STM32L1xx_HAL_Driver/Src/stm32l1xx_hal_gpio.c ****        registers.
  82:Drivers/STM32L1xx_HAL_Driver/Src/stm32l1xx_hal_gpio.c ****   
  83:Drivers/STM32L1xx_HAL_Driver/Src/stm32l1xx_hal_gpio.c ****    (#) To get the level of a pin configured in input mode use HAL_GPIO_ReadPin().
  84:Drivers/STM32L1xx_HAL_Driver/Src/stm32l1xx_hal_gpio.c ****   
  85:Drivers/STM32L1xx_HAL_Driver/Src/stm32l1xx_hal_gpio.c ****    (#) To set/reset the level of a pin configured in output mode use 
  86:Drivers/STM32L1xx_HAL_Driver/Src/stm32l1xx_hal_gpio.c ****        HAL_GPIO_WritePin()/HAL_GPIO_TogglePin().
  87:Drivers/STM32L1xx_HAL_Driver/Src/stm32l1xx_hal_gpio.c ****   
  88:Drivers/STM32L1xx_HAL_Driver/Src/stm32l1xx_hal_gpio.c ****    (#) To lock pin configuration until next reset use HAL_GPIO_LockPin().
  89:Drivers/STM32L1xx_HAL_Driver/Src/stm32l1xx_hal_gpio.c ****   
  90:Drivers/STM32L1xx_HAL_Driver/Src/stm32l1xx_hal_gpio.c ****    (#) During and just after reset, the alternate functions are not 
ARM GAS  /tmp/ccVA0YGW.s 			page 3


  91:Drivers/STM32L1xx_HAL_Driver/Src/stm32l1xx_hal_gpio.c ****        active and the GPIO pins are configured in input floating mode (except JTAG
  92:Drivers/STM32L1xx_HAL_Driver/Src/stm32l1xx_hal_gpio.c ****        pins).
  93:Drivers/STM32L1xx_HAL_Driver/Src/stm32l1xx_hal_gpio.c ****   
  94:Drivers/STM32L1xx_HAL_Driver/Src/stm32l1xx_hal_gpio.c ****    (#) The LSE oscillator pins OSC32_IN and OSC32_OUT can be used as general purpose 
  95:Drivers/STM32L1xx_HAL_Driver/Src/stm32l1xx_hal_gpio.c ****        (PC14 and PC15, respectively) when the LSE oscillator is off. The LSE has 
  96:Drivers/STM32L1xx_HAL_Driver/Src/stm32l1xx_hal_gpio.c ****        priority over the GPIO function.
  97:Drivers/STM32L1xx_HAL_Driver/Src/stm32l1xx_hal_gpio.c ****   
  98:Drivers/STM32L1xx_HAL_Driver/Src/stm32l1xx_hal_gpio.c ****    (#) The HSE oscillator pins OSC_IN/OSC_OUT can be used as 
  99:Drivers/STM32L1xx_HAL_Driver/Src/stm32l1xx_hal_gpio.c ****        general purpose PH0 and PH1, respectively, when the HSE oscillator is off. 
 100:Drivers/STM32L1xx_HAL_Driver/Src/stm32l1xx_hal_gpio.c ****        The HSE has priority over the GPIO function.
 101:Drivers/STM32L1xx_HAL_Driver/Src/stm32l1xx_hal_gpio.c ****   
 102:Drivers/STM32L1xx_HAL_Driver/Src/stm32l1xx_hal_gpio.c ****   @endverbatim
 103:Drivers/STM32L1xx_HAL_Driver/Src/stm32l1xx_hal_gpio.c ****   ******************************************************************************
 104:Drivers/STM32L1xx_HAL_Driver/Src/stm32l1xx_hal_gpio.c ****   * @attention
 105:Drivers/STM32L1xx_HAL_Driver/Src/stm32l1xx_hal_gpio.c ****   *
 106:Drivers/STM32L1xx_HAL_Driver/Src/stm32l1xx_hal_gpio.c ****   * <h2><center>&copy; COPYRIGHT(c) 2017 STMicroelectronics</center></h2>
 107:Drivers/STM32L1xx_HAL_Driver/Src/stm32l1xx_hal_gpio.c ****   *
 108:Drivers/STM32L1xx_HAL_Driver/Src/stm32l1xx_hal_gpio.c ****   * Redistribution and use in source and binary forms, with or without modification,
 109:Drivers/STM32L1xx_HAL_Driver/Src/stm32l1xx_hal_gpio.c ****   * are permitted provided that the following conditions are met:
 110:Drivers/STM32L1xx_HAL_Driver/Src/stm32l1xx_hal_gpio.c ****   *   1. Redistributions of source code must retain the above copyright notice,
 111:Drivers/STM32L1xx_HAL_Driver/Src/stm32l1xx_hal_gpio.c ****   *      this list of conditions and the following disclaimer.
 112:Drivers/STM32L1xx_HAL_Driver/Src/stm32l1xx_hal_gpio.c ****   *   2. Redistributions in binary form must reproduce the above copyright notice,
 113:Drivers/STM32L1xx_HAL_Driver/Src/stm32l1xx_hal_gpio.c ****   *      this list of conditions and the following disclaimer in the documentation
 114:Drivers/STM32L1xx_HAL_Driver/Src/stm32l1xx_hal_gpio.c ****   *      and/or other materials provided with the distribution.
 115:Drivers/STM32L1xx_HAL_Driver/Src/stm32l1xx_hal_gpio.c ****   *   3. Neither the name of STMicroelectronics nor the names of its contributors
 116:Drivers/STM32L1xx_HAL_Driver/Src/stm32l1xx_hal_gpio.c ****   *      may be used to endorse or promote products derived from this software
 117:Drivers/STM32L1xx_HAL_Driver/Src/stm32l1xx_hal_gpio.c ****   *      without specific prior written permission.
 118:Drivers/STM32L1xx_HAL_Driver/Src/stm32l1xx_hal_gpio.c ****   *
 119:Drivers/STM32L1xx_HAL_Driver/Src/stm32l1xx_hal_gpio.c ****   * THIS SOFTWARE IS PROVIDED BY THE COPYRIGHT HOLDERS AND CONTRIBUTORS "AS IS"
 120:Drivers/STM32L1xx_HAL_Driver/Src/stm32l1xx_hal_gpio.c ****   * AND ANY EXPRESS OR IMPLIED WARRANTIES, INCLUDING, BUT NOT LIMITED TO, THE
 121:Drivers/STM32L1xx_HAL_Driver/Src/stm32l1xx_hal_gpio.c ****   * IMPLIED WARRANTIES OF MERCHANTABILITY AND FITNESS FOR A PARTICULAR PURPOSE ARE
 122:Drivers/STM32L1xx_HAL_Driver/Src/stm32l1xx_hal_gpio.c ****   * DISCLAIMED. IN NO EVENT SHALL THE COPYRIGHT HOLDER OR CONTRIBUTORS BE LIABLE
 123:Drivers/STM32L1xx_HAL_Driver/Src/stm32l1xx_hal_gpio.c ****   * FOR ANY DIRECT, INDIRECT, INCIDENTAL, SPECIAL, EXEMPLARY, OR CONSEQUENTIAL
 124:Drivers/STM32L1xx_HAL_Driver/Src/stm32l1xx_hal_gpio.c ****   * DAMAGES (INCLUDING, BUT NOT LIMITED TO, PROCUREMENT OF SUBSTITUTE GOODS OR
 125:Drivers/STM32L1xx_HAL_Driver/Src/stm32l1xx_hal_gpio.c ****   * SERVICES; LOSS OF USE, DATA, OR PROFITS; OR BUSINESS INTERRUPTION) HOWEVER
 126:Drivers/STM32L1xx_HAL_Driver/Src/stm32l1xx_hal_gpio.c ****   * CAUSED AND ON ANY THEORY OF LIABILITY, WHETHER IN CONTRACT, STRICT LIABILITY,
 127:Drivers/STM32L1xx_HAL_Driver/Src/stm32l1xx_hal_gpio.c ****   * OR TORT (INCLUDING NEGLIGENCE OR OTHERWISE) ARISING IN ANY WAY OUT OF THE USE
 128:Drivers/STM32L1xx_HAL_Driver/Src/stm32l1xx_hal_gpio.c ****   * OF THIS SOFTWARE, EVEN IF ADVISED OF THE POSSIBILITY OF SUCH DAMAGE.
 129:Drivers/STM32L1xx_HAL_Driver/Src/stm32l1xx_hal_gpio.c ****   *
 130:Drivers/STM32L1xx_HAL_Driver/Src/stm32l1xx_hal_gpio.c ****   ******************************************************************************  
 131:Drivers/STM32L1xx_HAL_Driver/Src/stm32l1xx_hal_gpio.c ****   */
 132:Drivers/STM32L1xx_HAL_Driver/Src/stm32l1xx_hal_gpio.c **** 
 133:Drivers/STM32L1xx_HAL_Driver/Src/stm32l1xx_hal_gpio.c **** /* Includes ------------------------------------------------------------------*/
 134:Drivers/STM32L1xx_HAL_Driver/Src/stm32l1xx_hal_gpio.c **** #include "stm32l1xx_hal.h"
 135:Drivers/STM32L1xx_HAL_Driver/Src/stm32l1xx_hal_gpio.c **** 
 136:Drivers/STM32L1xx_HAL_Driver/Src/stm32l1xx_hal_gpio.c **** /** @addtogroup STM32L1xx_HAL_Driver
 137:Drivers/STM32L1xx_HAL_Driver/Src/stm32l1xx_hal_gpio.c ****   * @{
 138:Drivers/STM32L1xx_HAL_Driver/Src/stm32l1xx_hal_gpio.c ****   */
 139:Drivers/STM32L1xx_HAL_Driver/Src/stm32l1xx_hal_gpio.c **** 
 140:Drivers/STM32L1xx_HAL_Driver/Src/stm32l1xx_hal_gpio.c **** /** @addtogroup GPIO
 141:Drivers/STM32L1xx_HAL_Driver/Src/stm32l1xx_hal_gpio.c ****   * @brief GPIO HAL module driver
 142:Drivers/STM32L1xx_HAL_Driver/Src/stm32l1xx_hal_gpio.c ****   * @{
 143:Drivers/STM32L1xx_HAL_Driver/Src/stm32l1xx_hal_gpio.c ****   */
 144:Drivers/STM32L1xx_HAL_Driver/Src/stm32l1xx_hal_gpio.c **** 
 145:Drivers/STM32L1xx_HAL_Driver/Src/stm32l1xx_hal_gpio.c **** #ifdef HAL_GPIO_MODULE_ENABLED
 146:Drivers/STM32L1xx_HAL_Driver/Src/stm32l1xx_hal_gpio.c **** 
 147:Drivers/STM32L1xx_HAL_Driver/Src/stm32l1xx_hal_gpio.c **** /* Private typedef -----------------------------------------------------------*/
ARM GAS  /tmp/ccVA0YGW.s 			page 4


 148:Drivers/STM32L1xx_HAL_Driver/Src/stm32l1xx_hal_gpio.c **** /* Private define ------------------------------------------------------------*/
 149:Drivers/STM32L1xx_HAL_Driver/Src/stm32l1xx_hal_gpio.c **** /** @addtogroup GPIO_Private_Constants
 150:Drivers/STM32L1xx_HAL_Driver/Src/stm32l1xx_hal_gpio.c ****   * @{
 151:Drivers/STM32L1xx_HAL_Driver/Src/stm32l1xx_hal_gpio.c ****   */
 152:Drivers/STM32L1xx_HAL_Driver/Src/stm32l1xx_hal_gpio.c **** #define GPIO_MODE             (0x00000003U)
 153:Drivers/STM32L1xx_HAL_Driver/Src/stm32l1xx_hal_gpio.c **** #define EXTI_MODE             (0x10000000U)
 154:Drivers/STM32L1xx_HAL_Driver/Src/stm32l1xx_hal_gpio.c **** #define GPIO_MODE_IT          (0x00010000U)
 155:Drivers/STM32L1xx_HAL_Driver/Src/stm32l1xx_hal_gpio.c **** #define GPIO_MODE_EVT         (0x00020000U)
 156:Drivers/STM32L1xx_HAL_Driver/Src/stm32l1xx_hal_gpio.c **** #define RISING_EDGE           (0x00100000U)
 157:Drivers/STM32L1xx_HAL_Driver/Src/stm32l1xx_hal_gpio.c **** #define FALLING_EDGE          (0x00200000U)
 158:Drivers/STM32L1xx_HAL_Driver/Src/stm32l1xx_hal_gpio.c **** #define GPIO_OUTPUT_TYPE      (0x00000010U)
 159:Drivers/STM32L1xx_HAL_Driver/Src/stm32l1xx_hal_gpio.c **** 
 160:Drivers/STM32L1xx_HAL_Driver/Src/stm32l1xx_hal_gpio.c **** #define GPIO_NUMBER           (16U)
 161:Drivers/STM32L1xx_HAL_Driver/Src/stm32l1xx_hal_gpio.c ****  
 162:Drivers/STM32L1xx_HAL_Driver/Src/stm32l1xx_hal_gpio.c **** /**
 163:Drivers/STM32L1xx_HAL_Driver/Src/stm32l1xx_hal_gpio.c ****   * @}
 164:Drivers/STM32L1xx_HAL_Driver/Src/stm32l1xx_hal_gpio.c ****   */
 165:Drivers/STM32L1xx_HAL_Driver/Src/stm32l1xx_hal_gpio.c ****   
 166:Drivers/STM32L1xx_HAL_Driver/Src/stm32l1xx_hal_gpio.c **** /* Private macro -------------------------------------------------------------*/
 167:Drivers/STM32L1xx_HAL_Driver/Src/stm32l1xx_hal_gpio.c **** /* Private variables ---------------------------------------------------------*/
 168:Drivers/STM32L1xx_HAL_Driver/Src/stm32l1xx_hal_gpio.c **** /* Private function prototypes -----------------------------------------------*/
 169:Drivers/STM32L1xx_HAL_Driver/Src/stm32l1xx_hal_gpio.c **** /* Exported functions ---------------------------------------------------------*/
 170:Drivers/STM32L1xx_HAL_Driver/Src/stm32l1xx_hal_gpio.c **** 
 171:Drivers/STM32L1xx_HAL_Driver/Src/stm32l1xx_hal_gpio.c **** /** @addtogroup GPIO_Exported_Functions
 172:Drivers/STM32L1xx_HAL_Driver/Src/stm32l1xx_hal_gpio.c ****   * @{
 173:Drivers/STM32L1xx_HAL_Driver/Src/stm32l1xx_hal_gpio.c ****   */
 174:Drivers/STM32L1xx_HAL_Driver/Src/stm32l1xx_hal_gpio.c **** 
 175:Drivers/STM32L1xx_HAL_Driver/Src/stm32l1xx_hal_gpio.c **** /** @addtogroup GPIO_Exported_Functions_Group1
 176:Drivers/STM32L1xx_HAL_Driver/Src/stm32l1xx_hal_gpio.c ****  *  @brief    Initialization and Configuration functions 
 177:Drivers/STM32L1xx_HAL_Driver/Src/stm32l1xx_hal_gpio.c ****  *
 178:Drivers/STM32L1xx_HAL_Driver/Src/stm32l1xx_hal_gpio.c **** @verbatim    
 179:Drivers/STM32L1xx_HAL_Driver/Src/stm32l1xx_hal_gpio.c ****  ===============================================================================
 180:Drivers/STM32L1xx_HAL_Driver/Src/stm32l1xx_hal_gpio.c ****               ##### Initialization and Configuration functions #####
 181:Drivers/STM32L1xx_HAL_Driver/Src/stm32l1xx_hal_gpio.c ****  ===============================================================================
 182:Drivers/STM32L1xx_HAL_Driver/Src/stm32l1xx_hal_gpio.c ****  
 183:Drivers/STM32L1xx_HAL_Driver/Src/stm32l1xx_hal_gpio.c **** @endverbatim
 184:Drivers/STM32L1xx_HAL_Driver/Src/stm32l1xx_hal_gpio.c ****   * @{
 185:Drivers/STM32L1xx_HAL_Driver/Src/stm32l1xx_hal_gpio.c ****   */
 186:Drivers/STM32L1xx_HAL_Driver/Src/stm32l1xx_hal_gpio.c **** 
 187:Drivers/STM32L1xx_HAL_Driver/Src/stm32l1xx_hal_gpio.c **** /**
 188:Drivers/STM32L1xx_HAL_Driver/Src/stm32l1xx_hal_gpio.c ****   * @brief  Initializes the GPIOx peripheral according to the specified parameters in the GPIO_Init
 189:Drivers/STM32L1xx_HAL_Driver/Src/stm32l1xx_hal_gpio.c ****   * @param  GPIOx: where x can be (A..G depending on device used) to select the GPIO peripheral for
 190:Drivers/STM32L1xx_HAL_Driver/Src/stm32l1xx_hal_gpio.c ****   * @param  GPIO_Init: pointer to a GPIO_InitTypeDef structure that contains
 191:Drivers/STM32L1xx_HAL_Driver/Src/stm32l1xx_hal_gpio.c ****   *         the configuration information for the specified GPIO peripheral.
 192:Drivers/STM32L1xx_HAL_Driver/Src/stm32l1xx_hal_gpio.c ****   * @retval None
 193:Drivers/STM32L1xx_HAL_Driver/Src/stm32l1xx_hal_gpio.c ****   */
 194:Drivers/STM32L1xx_HAL_Driver/Src/stm32l1xx_hal_gpio.c **** void HAL_GPIO_Init(GPIO_TypeDef  *GPIOx, GPIO_InitTypeDef *GPIO_Init)
 195:Drivers/STM32L1xx_HAL_Driver/Src/stm32l1xx_hal_gpio.c **** { 
  26              		.loc 1 195 0
  27              		.cfi_startproc
  28              		@ args = 0, pretend = 0, frame = 8
  29              		@ frame_needed = 0, uses_anonymous_args = 0
  30              	.LVL0:
  31 0000 F0B5     		push	{r4, r5, r6, r7, lr}
  32              	.LCFI0:
  33              		.cfi_def_cfa_offset 20
  34              		.cfi_offset 4, -20
ARM GAS  /tmp/ccVA0YGW.s 			page 5


  35              		.cfi_offset 5, -16
  36              		.cfi_offset 6, -12
  37              		.cfi_offset 7, -8
  38              		.cfi_offset 14, -4
  39 0002 83B0     		sub	sp, sp, #12
  40              	.LCFI1:
  41              		.cfi_def_cfa_offset 32
  42              	.LVL1:
 196:Drivers/STM32L1xx_HAL_Driver/Src/stm32l1xx_hal_gpio.c ****   uint32_t position = 0x00;
  43              		.loc 1 196 0
  44 0004 0023     		movs	r3, #0
 197:Drivers/STM32L1xx_HAL_Driver/Src/stm32l1xx_hal_gpio.c ****   uint32_t iocurrent = 0x00;
 198:Drivers/STM32L1xx_HAL_Driver/Src/stm32l1xx_hal_gpio.c ****   uint32_t temp = 0x00;
 199:Drivers/STM32L1xx_HAL_Driver/Src/stm32l1xx_hal_gpio.c **** 
 200:Drivers/STM32L1xx_HAL_Driver/Src/stm32l1xx_hal_gpio.c ****   /* Check the parameters */
 201:Drivers/STM32L1xx_HAL_Driver/Src/stm32l1xx_hal_gpio.c ****   assert_param(IS_GPIO_ALL_INSTANCE(GPIOx));
 202:Drivers/STM32L1xx_HAL_Driver/Src/stm32l1xx_hal_gpio.c ****   assert_param(IS_GPIO_PIN(GPIO_Init->Pin));
 203:Drivers/STM32L1xx_HAL_Driver/Src/stm32l1xx_hal_gpio.c ****   assert_param(IS_GPIO_MODE(GPIO_Init->Mode));
 204:Drivers/STM32L1xx_HAL_Driver/Src/stm32l1xx_hal_gpio.c ****   assert_param(IS_GPIO_PULL(GPIO_Init->Pull)); 
 205:Drivers/STM32L1xx_HAL_Driver/Src/stm32l1xx_hal_gpio.c **** 
 206:Drivers/STM32L1xx_HAL_Driver/Src/stm32l1xx_hal_gpio.c ****   /* Configure the port pins */
 207:Drivers/STM32L1xx_HAL_Driver/Src/stm32l1xx_hal_gpio.c ****   while (((GPIO_Init->Pin) >> position) != 0)
  45              		.loc 1 207 0
  46 0006 8DE0     		b	.L2
  47              	.LVL2:
  48              	.L4:
 208:Drivers/STM32L1xx_HAL_Driver/Src/stm32l1xx_hal_gpio.c ****   {
 209:Drivers/STM32L1xx_HAL_Driver/Src/stm32l1xx_hal_gpio.c ****     /* Get current io position */
 210:Drivers/STM32L1xx_HAL_Driver/Src/stm32l1xx_hal_gpio.c ****     iocurrent = (GPIO_Init->Pin) & (1U << position);
 211:Drivers/STM32L1xx_HAL_Driver/Src/stm32l1xx_hal_gpio.c ****     
 212:Drivers/STM32L1xx_HAL_Driver/Src/stm32l1xx_hal_gpio.c ****     if(iocurrent)
 213:Drivers/STM32L1xx_HAL_Driver/Src/stm32l1xx_hal_gpio.c ****     {
 214:Drivers/STM32L1xx_HAL_Driver/Src/stm32l1xx_hal_gpio.c ****       /*--------------------- GPIO Mode Configuration ------------------------*/
 215:Drivers/STM32L1xx_HAL_Driver/Src/stm32l1xx_hal_gpio.c ****       /* In case of Alternate function mode selection */
 216:Drivers/STM32L1xx_HAL_Driver/Src/stm32l1xx_hal_gpio.c ****       if((GPIO_Init->Mode == GPIO_MODE_AF_PP) || (GPIO_Init->Mode == GPIO_MODE_AF_OD)) 
 217:Drivers/STM32L1xx_HAL_Driver/Src/stm32l1xx_hal_gpio.c ****       {
 218:Drivers/STM32L1xx_HAL_Driver/Src/stm32l1xx_hal_gpio.c ****         /* Check the Alternate function parameters */
 219:Drivers/STM32L1xx_HAL_Driver/Src/stm32l1xx_hal_gpio.c ****         assert_param(IS_GPIO_AF_INSTANCE(GPIOx));
 220:Drivers/STM32L1xx_HAL_Driver/Src/stm32l1xx_hal_gpio.c ****         assert_param(IS_GPIO_AF(GPIO_Init->Alternate));
 221:Drivers/STM32L1xx_HAL_Driver/Src/stm32l1xx_hal_gpio.c ****         
 222:Drivers/STM32L1xx_HAL_Driver/Src/stm32l1xx_hal_gpio.c ****         /* Configure Alternate function mapped with the current IO */ 
 223:Drivers/STM32L1xx_HAL_Driver/Src/stm32l1xx_hal_gpio.c ****         /* Identify AFRL or AFRH register based on IO position*/
 224:Drivers/STM32L1xx_HAL_Driver/Src/stm32l1xx_hal_gpio.c ****         temp = GPIOx->AFR[position >> 3];
  49              		.loc 1 224 0
  50 0008 DE08     		lsrs	r6, r3, #3
  51 000a 0836     		adds	r6, r6, #8
  52 000c 50F82640 		ldr	r4, [r0, r6, lsl #2]
  53              	.LVL3:
 225:Drivers/STM32L1xx_HAL_Driver/Src/stm32l1xx_hal_gpio.c ****         CLEAR_BIT(temp, 0xFU << ((uint32_t)(position & 0x07U) * 4)) ;      
  54              		.loc 1 225 0
  55 0010 03F0070E 		and	lr, r3, #7
  56 0014 4FEA8E0E 		lsl	lr, lr, #2
  57 0018 0F27     		movs	r7, #15
  58 001a 07FA0EF7 		lsl	r7, r7, lr
  59 001e 24EA0704 		bic	r4, r4, r7
  60              	.LVL4:
 226:Drivers/STM32L1xx_HAL_Driver/Src/stm32l1xx_hal_gpio.c ****         SET_BIT(temp, (uint32_t)(GPIO_Init->Alternate) << (((uint32_t)position & 0x07U) * 4));     
ARM GAS  /tmp/ccVA0YGW.s 			page 6


  61              		.loc 1 226 0
  62 0022 0F69     		ldr	r7, [r1, #16]
  63 0024 07FA0EF7 		lsl	r7, r7, lr
  64 0028 3C43     		orrs	r4, r4, r7
  65              	.LVL5:
 227:Drivers/STM32L1xx_HAL_Driver/Src/stm32l1xx_hal_gpio.c ****         GPIOx->AFR[position >> 3] = temp;
  66              		.loc 1 227 0
  67 002a 40F82640 		str	r4, [r0, r6, lsl #2]
  68 002e 88E0     		b	.L5
  69              	.LVL6:
  70              	.L6:
 228:Drivers/STM32L1xx_HAL_Driver/Src/stm32l1xx_hal_gpio.c ****       }
 229:Drivers/STM32L1xx_HAL_Driver/Src/stm32l1xx_hal_gpio.c **** 
 230:Drivers/STM32L1xx_HAL_Driver/Src/stm32l1xx_hal_gpio.c ****       /* Configure IO Direction mode (Input, Output, Alternate or Analog) */
 231:Drivers/STM32L1xx_HAL_Driver/Src/stm32l1xx_hal_gpio.c ****       temp = GPIOx->MODER;
 232:Drivers/STM32L1xx_HAL_Driver/Src/stm32l1xx_hal_gpio.c ****       CLEAR_BIT(temp, GPIO_MODER_MODER0 << (position * 2));   
 233:Drivers/STM32L1xx_HAL_Driver/Src/stm32l1xx_hal_gpio.c ****       SET_BIT(temp, (GPIO_Init->Mode & GPIO_MODE) << (position * 2));
 234:Drivers/STM32L1xx_HAL_Driver/Src/stm32l1xx_hal_gpio.c ****       GPIOx->MODER = temp;
 235:Drivers/STM32L1xx_HAL_Driver/Src/stm32l1xx_hal_gpio.c **** 
 236:Drivers/STM32L1xx_HAL_Driver/Src/stm32l1xx_hal_gpio.c ****       /* In case of Output or Alternate function mode selection */
 237:Drivers/STM32L1xx_HAL_Driver/Src/stm32l1xx_hal_gpio.c ****       if ((GPIO_Init->Mode == GPIO_MODE_OUTPUT_PP) || (GPIO_Init->Mode == GPIO_MODE_AF_PP) ||
 238:Drivers/STM32L1xx_HAL_Driver/Src/stm32l1xx_hal_gpio.c ****           (GPIO_Init->Mode == GPIO_MODE_OUTPUT_OD) || (GPIO_Init->Mode == GPIO_MODE_AF_OD))
 239:Drivers/STM32L1xx_HAL_Driver/Src/stm32l1xx_hal_gpio.c ****       {
 240:Drivers/STM32L1xx_HAL_Driver/Src/stm32l1xx_hal_gpio.c ****         /* Check the Speed parameter */
 241:Drivers/STM32L1xx_HAL_Driver/Src/stm32l1xx_hal_gpio.c ****         assert_param(IS_GPIO_SPEED(GPIO_Init->Speed));
 242:Drivers/STM32L1xx_HAL_Driver/Src/stm32l1xx_hal_gpio.c ****         /* Configure the IO Speed */
 243:Drivers/STM32L1xx_HAL_Driver/Src/stm32l1xx_hal_gpio.c ****         temp = GPIOx->OSPEEDR; 
  71              		.loc 1 243 0
  72 0030 8668     		ldr	r6, [r0, #8]
  73              	.LVL7:
 244:Drivers/STM32L1xx_HAL_Driver/Src/stm32l1xx_hal_gpio.c ****         CLEAR_BIT(temp, GPIO_OSPEEDER_OSPEEDR0 << (position * 2));
  74              		.loc 1 244 0
  75 0032 2640     		ands	r6, r6, r4
  76              	.LVL8:
 245:Drivers/STM32L1xx_HAL_Driver/Src/stm32l1xx_hal_gpio.c ****         SET_BIT(temp, GPIO_Init->Speed << (position * 2));
  77              		.loc 1 245 0
  78 0034 CF68     		ldr	r7, [r1, #12]
  79 0036 07FA0EF7 		lsl	r7, r7, lr
  80 003a 3E43     		orrs	r6, r6, r7
  81              	.LVL9:
 246:Drivers/STM32L1xx_HAL_Driver/Src/stm32l1xx_hal_gpio.c ****         GPIOx->OSPEEDR = temp;
  82              		.loc 1 246 0
  83 003c 8660     		str	r6, [r0, #8]
 247:Drivers/STM32L1xx_HAL_Driver/Src/stm32l1xx_hal_gpio.c **** 
 248:Drivers/STM32L1xx_HAL_Driver/Src/stm32l1xx_hal_gpio.c ****         /* Configure the IO Output Type */
 249:Drivers/STM32L1xx_HAL_Driver/Src/stm32l1xx_hal_gpio.c ****         temp = GPIOx->OTYPER;
  84              		.loc 1 249 0
  85 003e 4668     		ldr	r6, [r0, #4]
  86              	.LVL10:
 250:Drivers/STM32L1xx_HAL_Driver/Src/stm32l1xx_hal_gpio.c ****         CLEAR_BIT(temp, GPIO_OTYPER_OT_0 << position) ;
  87              		.loc 1 250 0
  88 0040 26EA0505 		bic	r5, r6, r5
  89              	.LVL11:
 251:Drivers/STM32L1xx_HAL_Driver/Src/stm32l1xx_hal_gpio.c ****         SET_BIT(temp, ((GPIO_Init->Mode & GPIO_OUTPUT_TYPE) >> 4) << position);
  90              		.loc 1 251 0
  91 0044 4E68     		ldr	r6, [r1, #4]
  92 0046 C6F30016 		ubfx	r6, r6, #4, #1
ARM GAS  /tmp/ccVA0YGW.s 			page 7


  93 004a 9E40     		lsls	r6, r6, r3
  94 004c 3543     		orrs	r5, r5, r6
  95              	.LVL12:
 252:Drivers/STM32L1xx_HAL_Driver/Src/stm32l1xx_hal_gpio.c ****         GPIOx->OTYPER = temp;
  96              		.loc 1 252 0
  97 004e 4560     		str	r5, [r0, #4]
  98              	.LVL13:
  99              	.L7:
 253:Drivers/STM32L1xx_HAL_Driver/Src/stm32l1xx_hal_gpio.c ****       }
 254:Drivers/STM32L1xx_HAL_Driver/Src/stm32l1xx_hal_gpio.c **** 
 255:Drivers/STM32L1xx_HAL_Driver/Src/stm32l1xx_hal_gpio.c ****       /* Activate the Pull-up or Pull down resistor for the current IO */
 256:Drivers/STM32L1xx_HAL_Driver/Src/stm32l1xx_hal_gpio.c ****       temp = GPIOx->PUPDR;
 100              		.loc 1 256 0
 101 0050 C568     		ldr	r5, [r0, #12]
 102              	.LVL14:
 257:Drivers/STM32L1xx_HAL_Driver/Src/stm32l1xx_hal_gpio.c ****       CLEAR_BIT(temp, GPIO_PUPDR_PUPDR0 << (position * 2));
 103              		.loc 1 257 0
 104 0052 2C40     		ands	r4, r4, r5
 105              	.LVL15:
 258:Drivers/STM32L1xx_HAL_Driver/Src/stm32l1xx_hal_gpio.c ****       SET_BIT(temp, (GPIO_Init->Pull) << (position * 2));
 106              		.loc 1 258 0
 107 0054 8D68     		ldr	r5, [r1, #8]
 108 0056 05FA0EF5 		lsl	r5, r5, lr
 109 005a 2C43     		orrs	r4, r4, r5
 110              	.LVL16:
 259:Drivers/STM32L1xx_HAL_Driver/Src/stm32l1xx_hal_gpio.c ****       GPIOx->PUPDR = temp;
 111              		.loc 1 259 0
 112 005c C460     		str	r4, [r0, #12]
 260:Drivers/STM32L1xx_HAL_Driver/Src/stm32l1xx_hal_gpio.c **** 
 261:Drivers/STM32L1xx_HAL_Driver/Src/stm32l1xx_hal_gpio.c ****       /*--------------------- EXTI Mode Configuration ------------------------*/
 262:Drivers/STM32L1xx_HAL_Driver/Src/stm32l1xx_hal_gpio.c ****       /* Configure the External Interrupt or event for the current IO */
 263:Drivers/STM32L1xx_HAL_Driver/Src/stm32l1xx_hal_gpio.c ****       if((GPIO_Init->Mode & EXTI_MODE) == EXTI_MODE) 
 113              		.loc 1 263 0
 114 005e 4C68     		ldr	r4, [r1, #4]
 115              	.LVL17:
 116 0060 14F0805F 		tst	r4, #268435456
 117 0064 5DD0     		beq	.L3
 118              	.LBB2:
 264:Drivers/STM32L1xx_HAL_Driver/Src/stm32l1xx_hal_gpio.c ****       {
 265:Drivers/STM32L1xx_HAL_Driver/Src/stm32l1xx_hal_gpio.c ****         /* Enable SYSCFG Clock */
 266:Drivers/STM32L1xx_HAL_Driver/Src/stm32l1xx_hal_gpio.c ****         __HAL_RCC_SYSCFG_CLK_ENABLE();
 119              		.loc 1 266 0
 120 0066 4A4C     		ldr	r4, .L22
 121 0068 256A     		ldr	r5, [r4, #32]
 122 006a 45F00105 		orr	r5, r5, #1
 123 006e 2562     		str	r5, [r4, #32]
 124              	.LVL18:
 125 0070 246A     		ldr	r4, [r4, #32]
 126 0072 04F00104 		and	r4, r4, #1
 127 0076 0194     		str	r4, [sp, #4]
 128 0078 019C     		ldr	r4, [sp, #4]
 129              	.LBE2:
 267:Drivers/STM32L1xx_HAL_Driver/Src/stm32l1xx_hal_gpio.c ****         
 268:Drivers/STM32L1xx_HAL_Driver/Src/stm32l1xx_hal_gpio.c ****         temp = SYSCFG->EXTICR[position >> 2];
 130              		.loc 1 268 0
 131 007a 9D08     		lsrs	r5, r3, #2
 132 007c AE1C     		adds	r6, r5, #2
ARM GAS  /tmp/ccVA0YGW.s 			page 8


 133 007e 454C     		ldr	r4, .L22+4
 134 0080 54F82640 		ldr	r4, [r4, r6, lsl #2]
 135              	.LVL19:
 269:Drivers/STM32L1xx_HAL_Driver/Src/stm32l1xx_hal_gpio.c ****         CLEAR_BIT(temp, (0x0FU) << (4 * (position & 0x03)));
 136              		.loc 1 269 0
 137 0084 03F00306 		and	r6, r3, #3
 138 0088 B600     		lsls	r6, r6, #2
 139 008a 0F27     		movs	r7, #15
 140 008c B740     		lsls	r7, r7, r6
 141 008e 24EA0704 		bic	r4, r4, r7
 142              	.LVL20:
 270:Drivers/STM32L1xx_HAL_Driver/Src/stm32l1xx_hal_gpio.c ****         SET_BIT(temp, (GPIO_GET_INDEX(GPIOx)) << (4 * (position & 0x03)));
 143              		.loc 1 270 0
 144 0092 414F     		ldr	r7, .L22+8
 145 0094 B842     		cmp	r0, r7
 146 0096 71D0     		beq	.L14
 147              		.loc 1 270 0 is_stmt 0 discriminator 1
 148 0098 07F58067 		add	r7, r7, #1024
 149 009c B842     		cmp	r0, r7
 150 009e 6FD0     		beq	.L15
 151              		.loc 1 270 0 discriminator 3
 152 00a0 07F58067 		add	r7, r7, #1024
 153 00a4 B842     		cmp	r0, r7
 154 00a6 6DD0     		beq	.L16
 155              		.loc 1 270 0 discriminator 5
 156 00a8 07F58067 		add	r7, r7, #1024
 157 00ac B842     		cmp	r0, r7
 158 00ae 6BD0     		beq	.L17
 159              		.loc 1 270 0 discriminator 7
 160 00b0 07F58067 		add	r7, r7, #1024
 161 00b4 B842     		cmp	r0, r7
 162 00b6 5FD0     		beq	.L20
 163              		.loc 1 270 0
 164 00b8 0527     		movs	r7, #5
 165              	.L8:
 166              		.loc 1 270 0 discriminator 20
 167 00ba 07FA06F6 		lsl	r6, r7, r6
 168 00be 3443     		orrs	r4, r4, r6
 169              	.LVL21:
 271:Drivers/STM32L1xx_HAL_Driver/Src/stm32l1xx_hal_gpio.c ****         SYSCFG->EXTICR[position >> 2] = temp;
 170              		.loc 1 271 0 is_stmt 1 discriminator 20
 171 00c0 0235     		adds	r5, r5, #2
 172 00c2 344E     		ldr	r6, .L22+4
 173 00c4 46F82540 		str	r4, [r6, r5, lsl #2]
 272:Drivers/STM32L1xx_HAL_Driver/Src/stm32l1xx_hal_gpio.c ****                   
 273:Drivers/STM32L1xx_HAL_Driver/Src/stm32l1xx_hal_gpio.c ****         /* Clear EXTI line configuration */
 274:Drivers/STM32L1xx_HAL_Driver/Src/stm32l1xx_hal_gpio.c ****         temp = EXTI->IMR;
 174              		.loc 1 274 0 discriminator 20
 175 00c8 344C     		ldr	r4, .L22+12
 176              	.LVL22:
 177 00ca 2568     		ldr	r5, [r4]
 178              	.LVL23:
 275:Drivers/STM32L1xx_HAL_Driver/Src/stm32l1xx_hal_gpio.c ****         CLEAR_BIT(temp, (uint32_t)iocurrent);
 179              		.loc 1 275 0 discriminator 20
 180 00cc D443     		mvns	r4, r2
 181 00ce 05EA0406 		and	r6, r5, r4
 182              	.LVL24:
ARM GAS  /tmp/ccVA0YGW.s 			page 9


 276:Drivers/STM32L1xx_HAL_Driver/Src/stm32l1xx_hal_gpio.c ****         if((GPIO_Init->Mode & GPIO_MODE_IT) == GPIO_MODE_IT)
 183              		.loc 1 276 0 discriminator 20
 184 00d2 4F68     		ldr	r7, [r1, #4]
 185 00d4 17F4803F 		tst	r7, #65536
 186 00d8 01D0     		beq	.L9
 277:Drivers/STM32L1xx_HAL_Driver/Src/stm32l1xx_hal_gpio.c ****         {
 278:Drivers/STM32L1xx_HAL_Driver/Src/stm32l1xx_hal_gpio.c ****           SET_BIT(temp, iocurrent); 
 187              		.loc 1 278 0
 188 00da 42EA0506 		orr	r6, r2, r5
 189              	.LVL25:
 190              	.L9:
 279:Drivers/STM32L1xx_HAL_Driver/Src/stm32l1xx_hal_gpio.c ****         }
 280:Drivers/STM32L1xx_HAL_Driver/Src/stm32l1xx_hal_gpio.c ****         EXTI->IMR = temp;
 191              		.loc 1 280 0
 192 00de 2F4D     		ldr	r5, .L22+12
 193 00e0 2E60     		str	r6, [r5]
 281:Drivers/STM32L1xx_HAL_Driver/Src/stm32l1xx_hal_gpio.c **** 
 282:Drivers/STM32L1xx_HAL_Driver/Src/stm32l1xx_hal_gpio.c ****         temp = EXTI->EMR;
 194              		.loc 1 282 0
 195 00e2 6D68     		ldr	r5, [r5, #4]
 196              	.LVL26:
 283:Drivers/STM32L1xx_HAL_Driver/Src/stm32l1xx_hal_gpio.c ****         CLEAR_BIT(temp, (uint32_t)iocurrent);      
 197              		.loc 1 283 0
 198 00e4 04EA0506 		and	r6, r4, r5
 199              	.LVL27:
 284:Drivers/STM32L1xx_HAL_Driver/Src/stm32l1xx_hal_gpio.c ****         if((GPIO_Init->Mode & GPIO_MODE_EVT) == GPIO_MODE_EVT)
 200              		.loc 1 284 0
 201 00e8 4F68     		ldr	r7, [r1, #4]
 202 00ea 17F4003F 		tst	r7, #131072
 203 00ee 01D0     		beq	.L10
 285:Drivers/STM32L1xx_HAL_Driver/Src/stm32l1xx_hal_gpio.c ****         {
 286:Drivers/STM32L1xx_HAL_Driver/Src/stm32l1xx_hal_gpio.c ****           SET_BIT(temp, iocurrent); 
 204              		.loc 1 286 0
 205 00f0 42EA0506 		orr	r6, r2, r5
 206              	.LVL28:
 207              	.L10:
 287:Drivers/STM32L1xx_HAL_Driver/Src/stm32l1xx_hal_gpio.c ****         }
 288:Drivers/STM32L1xx_HAL_Driver/Src/stm32l1xx_hal_gpio.c ****         EXTI->EMR = temp;
 208              		.loc 1 288 0
 209 00f4 294D     		ldr	r5, .L22+12
 210 00f6 6E60     		str	r6, [r5, #4]
 289:Drivers/STM32L1xx_HAL_Driver/Src/stm32l1xx_hal_gpio.c ****   
 290:Drivers/STM32L1xx_HAL_Driver/Src/stm32l1xx_hal_gpio.c ****         /* Clear Rising Falling edge configuration */
 291:Drivers/STM32L1xx_HAL_Driver/Src/stm32l1xx_hal_gpio.c ****         temp = EXTI->RTSR;
 211              		.loc 1 291 0
 212 00f8 AD68     		ldr	r5, [r5, #8]
 213              	.LVL29:
 292:Drivers/STM32L1xx_HAL_Driver/Src/stm32l1xx_hal_gpio.c ****         CLEAR_BIT(temp, (uint32_t)iocurrent); 
 214              		.loc 1 292 0
 215 00fa 04EA0506 		and	r6, r4, r5
 216              	.LVL30:
 293:Drivers/STM32L1xx_HAL_Driver/Src/stm32l1xx_hal_gpio.c ****         if((GPIO_Init->Mode & RISING_EDGE) == RISING_EDGE)
 217              		.loc 1 293 0
 218 00fe 4F68     		ldr	r7, [r1, #4]
 219 0100 17F4801F 		tst	r7, #1048576
 220 0104 01D0     		beq	.L11
 294:Drivers/STM32L1xx_HAL_Driver/Src/stm32l1xx_hal_gpio.c ****         {
ARM GAS  /tmp/ccVA0YGW.s 			page 10


 295:Drivers/STM32L1xx_HAL_Driver/Src/stm32l1xx_hal_gpio.c ****           SET_BIT(temp, iocurrent); 
 221              		.loc 1 295 0
 222 0106 42EA0506 		orr	r6, r2, r5
 223              	.LVL31:
 224              	.L11:
 296:Drivers/STM32L1xx_HAL_Driver/Src/stm32l1xx_hal_gpio.c ****         }
 297:Drivers/STM32L1xx_HAL_Driver/Src/stm32l1xx_hal_gpio.c ****         EXTI->RTSR = temp;
 225              		.loc 1 297 0
 226 010a 244D     		ldr	r5, .L22+12
 227 010c AE60     		str	r6, [r5, #8]
 298:Drivers/STM32L1xx_HAL_Driver/Src/stm32l1xx_hal_gpio.c **** 
 299:Drivers/STM32L1xx_HAL_Driver/Src/stm32l1xx_hal_gpio.c ****         temp = EXTI->FTSR;
 228              		.loc 1 299 0
 229 010e ED68     		ldr	r5, [r5, #12]
 230              	.LVL32:
 300:Drivers/STM32L1xx_HAL_Driver/Src/stm32l1xx_hal_gpio.c ****         CLEAR_BIT(temp, (uint32_t)iocurrent); 
 231              		.loc 1 300 0
 232 0110 2C40     		ands	r4, r4, r5
 233              	.LVL33:
 301:Drivers/STM32L1xx_HAL_Driver/Src/stm32l1xx_hal_gpio.c ****         if((GPIO_Init->Mode & FALLING_EDGE) == FALLING_EDGE)
 234              		.loc 1 301 0
 235 0112 4E68     		ldr	r6, [r1, #4]
 236 0114 16F4001F 		tst	r6, #2097152
 237 0118 01D0     		beq	.L12
 302:Drivers/STM32L1xx_HAL_Driver/Src/stm32l1xx_hal_gpio.c ****         {
 303:Drivers/STM32L1xx_HAL_Driver/Src/stm32l1xx_hal_gpio.c ****           SET_BIT(temp, iocurrent); 
 238              		.loc 1 303 0
 239 011a 42EA0504 		orr	r4, r2, r5
 240              	.LVL34:
 241              	.L12:
 304:Drivers/STM32L1xx_HAL_Driver/Src/stm32l1xx_hal_gpio.c ****         }
 305:Drivers/STM32L1xx_HAL_Driver/Src/stm32l1xx_hal_gpio.c ****         EXTI->FTSR = temp;
 242              		.loc 1 305 0
 243 011e 1F4A     		ldr	r2, .L22+12
 244              	.LVL35:
 245 0120 D460     		str	r4, [r2, #12]
 246              	.LVL36:
 247              	.L3:
 306:Drivers/STM32L1xx_HAL_Driver/Src/stm32l1xx_hal_gpio.c ****       }
 307:Drivers/STM32L1xx_HAL_Driver/Src/stm32l1xx_hal_gpio.c ****     }
 308:Drivers/STM32L1xx_HAL_Driver/Src/stm32l1xx_hal_gpio.c ****     
 309:Drivers/STM32L1xx_HAL_Driver/Src/stm32l1xx_hal_gpio.c ****     position++;
 248              		.loc 1 309 0
 249 0122 0133     		adds	r3, r3, #1
 250              	.LVL37:
 251              	.L2:
 207:Drivers/STM32L1xx_HAL_Driver/Src/stm32l1xx_hal_gpio.c ****   {
 252              		.loc 1 207 0
 253 0124 0A68     		ldr	r2, [r1]
 254 0126 32FA03F4 		lsrs	r4, r2, r3
 255 012a 2FD0     		beq	.L21
 210:Drivers/STM32L1xx_HAL_Driver/Src/stm32l1xx_hal_gpio.c ****     
 256              		.loc 1 210 0
 257 012c 0125     		movs	r5, #1
 258 012e 9D40     		lsls	r5, r5, r3
 259              	.LVL38:
 212:Drivers/STM32L1xx_HAL_Driver/Src/stm32l1xx_hal_gpio.c ****     {
ARM GAS  /tmp/ccVA0YGW.s 			page 11


 260              		.loc 1 212 0
 261 0130 2A40     		ands	r2, r2, r5
 262              	.LVL39:
 263 0132 F6D0     		beq	.L3
 216:Drivers/STM32L1xx_HAL_Driver/Src/stm32l1xx_hal_gpio.c ****       {
 264              		.loc 1 216 0
 265 0134 4C68     		ldr	r4, [r1, #4]
 266 0136 022C     		cmp	r4, #2
 267 0138 3FF466AF 		beq	.L4
 216:Drivers/STM32L1xx_HAL_Driver/Src/stm32l1xx_hal_gpio.c ****       {
 268              		.loc 1 216 0 is_stmt 0 discriminator 1
 269 013c 122C     		cmp	r4, #18
 270 013e 3FF463AF 		beq	.L4
 271              	.L5:
 231:Drivers/STM32L1xx_HAL_Driver/Src/stm32l1xx_hal_gpio.c ****       CLEAR_BIT(temp, GPIO_MODER_MODER0 << (position * 2));   
 272              		.loc 1 231 0 is_stmt 1
 273 0142 0668     		ldr	r6, [r0]
 274              	.LVL40:
 232:Drivers/STM32L1xx_HAL_Driver/Src/stm32l1xx_hal_gpio.c ****       SET_BIT(temp, (GPIO_Init->Mode & GPIO_MODE) << (position * 2));
 275              		.loc 1 232 0
 276 0144 4FEA430E 		lsl	lr, r3, #1
 277 0148 0324     		movs	r4, #3
 278 014a 04FA0EF4 		lsl	r4, r4, lr
 279 014e E443     		mvns	r4, r4
 280 0150 2640     		ands	r6, r6, r4
 281              	.LVL41:
 233:Drivers/STM32L1xx_HAL_Driver/Src/stm32l1xx_hal_gpio.c ****       GPIOx->MODER = temp;
 282              		.loc 1 233 0
 283 0152 4F68     		ldr	r7, [r1, #4]
 284 0154 07F00307 		and	r7, r7, #3
 285 0158 07FA0EF7 		lsl	r7, r7, lr
 286 015c 3E43     		orrs	r6, r6, r7
 287              	.LVL42:
 234:Drivers/STM32L1xx_HAL_Driver/Src/stm32l1xx_hal_gpio.c **** 
 288              		.loc 1 234 0
 289 015e 0660     		str	r6, [r0]
 237:Drivers/STM32L1xx_HAL_Driver/Src/stm32l1xx_hal_gpio.c ****           (GPIO_Init->Mode == GPIO_MODE_OUTPUT_OD) || (GPIO_Init->Mode == GPIO_MODE_AF_OD))
 290              		.loc 1 237 0
 291 0160 4E68     		ldr	r6, [r1, #4]
 292              	.LVL43:
 293 0162 771E     		subs	r7, r6, #1
 294 0164 012F     		cmp	r7, #1
 295 0166 7FF663AF 		bls	.L6
 237:Drivers/STM32L1xx_HAL_Driver/Src/stm32l1xx_hal_gpio.c ****           (GPIO_Init->Mode == GPIO_MODE_OUTPUT_OD) || (GPIO_Init->Mode == GPIO_MODE_AF_OD))
 296              		.loc 1 237 0 is_stmt 0 discriminator 1
 297 016a 112E     		cmp	r6, #17
 298 016c 3FF460AF 		beq	.L6
 238:Drivers/STM32L1xx_HAL_Driver/Src/stm32l1xx_hal_gpio.c ****       {
 299              		.loc 1 238 0 is_stmt 1
 300 0170 122E     		cmp	r6, #18
 301 0172 7FF46DAF 		bne	.L7
 302 0176 5BE7     		b	.L6
 303              	.LVL44:
 304              	.L20:
 270:Drivers/STM32L1xx_HAL_Driver/Src/stm32l1xx_hal_gpio.c ****         SYSCFG->EXTICR[position >> 2] = temp;
 305              		.loc 1 270 0
 306 0178 0427     		movs	r7, #4
ARM GAS  /tmp/ccVA0YGW.s 			page 12


 307 017a 9EE7     		b	.L8
 308              	.L14:
 309 017c 0027     		movs	r7, #0
 310 017e 9CE7     		b	.L8
 311              	.L15:
 312 0180 0127     		movs	r7, #1
 313 0182 9AE7     		b	.L8
 314              	.L16:
 315 0184 0227     		movs	r7, #2
 316 0186 98E7     		b	.L8
 317              	.L17:
 318 0188 0327     		movs	r7, #3
 319 018a 96E7     		b	.L8
 320              	.LVL45:
 321              	.L21:
 310:Drivers/STM32L1xx_HAL_Driver/Src/stm32l1xx_hal_gpio.c ****   } 
 311:Drivers/STM32L1xx_HAL_Driver/Src/stm32l1xx_hal_gpio.c **** }
 322              		.loc 1 311 0
 323 018c 03B0     		add	sp, sp, #12
 324              	.LCFI2:
 325              		.cfi_def_cfa_offset 20
 326              		@ sp needed
 327 018e F0BD     		pop	{r4, r5, r6, r7, pc}
 328              	.L23:
 329              		.align	2
 330              	.L22:
 331 0190 00380240 		.word	1073887232
 332 0194 00000140 		.word	1073807360
 333 0198 00000240 		.word	1073872896
 334 019c 00040140 		.word	1073808384
 335              		.cfi_endproc
 336              	.LFE64:
 338              		.section	.text.HAL_GPIO_DeInit,"ax",%progbits
 339              		.align	1
 340              		.global	HAL_GPIO_DeInit
 341              		.syntax unified
 342              		.thumb
 343              		.thumb_func
 344              		.fpu softvfp
 346              	HAL_GPIO_DeInit:
 347              	.LFB65:
 312:Drivers/STM32L1xx_HAL_Driver/Src/stm32l1xx_hal_gpio.c **** 
 313:Drivers/STM32L1xx_HAL_Driver/Src/stm32l1xx_hal_gpio.c **** /**
 314:Drivers/STM32L1xx_HAL_Driver/Src/stm32l1xx_hal_gpio.c ****   * @brief  De-initializes the GPIOx peripheral registers to their default reset values.
 315:Drivers/STM32L1xx_HAL_Driver/Src/stm32l1xx_hal_gpio.c ****   * @param  GPIOx: where x can be (A..G depending on device used) to select the GPIO peripheral for
 316:Drivers/STM32L1xx_HAL_Driver/Src/stm32l1xx_hal_gpio.c ****   * @param  GPIO_Pin: specifies the port bit to be written.
 317:Drivers/STM32L1xx_HAL_Driver/Src/stm32l1xx_hal_gpio.c ****   *         This parameter can be one of GPIO_PIN_x where x can be (0..15).
 318:Drivers/STM32L1xx_HAL_Driver/Src/stm32l1xx_hal_gpio.c ****   * @retval None
 319:Drivers/STM32L1xx_HAL_Driver/Src/stm32l1xx_hal_gpio.c ****   */
 320:Drivers/STM32L1xx_HAL_Driver/Src/stm32l1xx_hal_gpio.c **** void HAL_GPIO_DeInit(GPIO_TypeDef  *GPIOx, uint32_t GPIO_Pin)
 321:Drivers/STM32L1xx_HAL_Driver/Src/stm32l1xx_hal_gpio.c **** {
 348              		.loc 1 321 0
 349              		.cfi_startproc
 350              		@ args = 0, pretend = 0, frame = 0
 351              		@ frame_needed = 0, uses_anonymous_args = 0
 352              	.LVL46:
 322:Drivers/STM32L1xx_HAL_Driver/Src/stm32l1xx_hal_gpio.c ****   uint32_t position = 0x00;
ARM GAS  /tmp/ccVA0YGW.s 			page 13


 353              		.loc 1 322 0
 354 0000 0023     		movs	r3, #0
 355              	.LVL47:
 323:Drivers/STM32L1xx_HAL_Driver/Src/stm32l1xx_hal_gpio.c ****   uint32_t iocurrent = 0x00;
 324:Drivers/STM32L1xx_HAL_Driver/Src/stm32l1xx_hal_gpio.c ****   uint32_t tmp = 0x00;
 325:Drivers/STM32L1xx_HAL_Driver/Src/stm32l1xx_hal_gpio.c **** 
 326:Drivers/STM32L1xx_HAL_Driver/Src/stm32l1xx_hal_gpio.c ****   /* Check the parameters */
 327:Drivers/STM32L1xx_HAL_Driver/Src/stm32l1xx_hal_gpio.c ****   assert_param(IS_GPIO_ALL_INSTANCE(GPIOx));
 328:Drivers/STM32L1xx_HAL_Driver/Src/stm32l1xx_hal_gpio.c ****   assert_param(IS_GPIO_PIN(GPIO_Pin));
 329:Drivers/STM32L1xx_HAL_Driver/Src/stm32l1xx_hal_gpio.c **** 
 330:Drivers/STM32L1xx_HAL_Driver/Src/stm32l1xx_hal_gpio.c ****   /* Configure the port pins */
 331:Drivers/STM32L1xx_HAL_Driver/Src/stm32l1xx_hal_gpio.c ****   while ((GPIO_Pin >> position) != 0)
 356              		.loc 1 331 0
 357 0002 31FA03F2 		lsrs	r2, r1, r3
 358 0006 72D0     		beq	.L37
 321:Drivers/STM32L1xx_HAL_Driver/Src/stm32l1xx_hal_gpio.c ****   uint32_t position = 0x00;
 359              		.loc 1 321 0
 360 0008 F0B5     		push	{r4, r5, r6, r7, lr}
 361              	.LCFI3:
 362              		.cfi_def_cfa_offset 20
 363              		.cfi_offset 4, -20
 364              		.cfi_offset 5, -16
 365              		.cfi_offset 6, -12
 366              		.cfi_offset 7, -8
 367              		.cfi_offset 14, -4
 368 000a 0AE0     		b	.L28
 369              	.LVL48:
 370              	.L40:
 332:Drivers/STM32L1xx_HAL_Driver/Src/stm32l1xx_hal_gpio.c ****   {
 333:Drivers/STM32L1xx_HAL_Driver/Src/stm32l1xx_hal_gpio.c ****     /* Get current io position */
 334:Drivers/STM32L1xx_HAL_Driver/Src/stm32l1xx_hal_gpio.c ****     iocurrent = (GPIO_Pin) & (1U << position);
 335:Drivers/STM32L1xx_HAL_Driver/Src/stm32l1xx_hal_gpio.c **** 
 336:Drivers/STM32L1xx_HAL_Driver/Src/stm32l1xx_hal_gpio.c ****     if (iocurrent)
 337:Drivers/STM32L1xx_HAL_Driver/Src/stm32l1xx_hal_gpio.c ****     {
 338:Drivers/STM32L1xx_HAL_Driver/Src/stm32l1xx_hal_gpio.c ****       /*------------------------- GPIO Mode Configuration --------------------*/
 339:Drivers/STM32L1xx_HAL_Driver/Src/stm32l1xx_hal_gpio.c ****       /* Configure IO Direction in Input Floting Mode */
 340:Drivers/STM32L1xx_HAL_Driver/Src/stm32l1xx_hal_gpio.c ****       CLEAR_BIT(GPIOx->MODER, GPIO_MODER_MODER0 << (position * 2)); 
 341:Drivers/STM32L1xx_HAL_Driver/Src/stm32l1xx_hal_gpio.c ****   
 342:Drivers/STM32L1xx_HAL_Driver/Src/stm32l1xx_hal_gpio.c ****       /* Configure the default Alternate Function in current IO */ 
 343:Drivers/STM32L1xx_HAL_Driver/Src/stm32l1xx_hal_gpio.c ****       CLEAR_BIT(GPIOx->AFR[position >> 3], 0xFU << ((uint32_t)(position & 0x07U) * 4)) ;
 344:Drivers/STM32L1xx_HAL_Driver/Src/stm32l1xx_hal_gpio.c ****   
 345:Drivers/STM32L1xx_HAL_Driver/Src/stm32l1xx_hal_gpio.c ****       /* Configure the default value for IO Speed */
 346:Drivers/STM32L1xx_HAL_Driver/Src/stm32l1xx_hal_gpio.c ****       CLEAR_BIT(GPIOx->OSPEEDR, GPIO_OSPEEDER_OSPEEDR0 << (position * 2));
 347:Drivers/STM32L1xx_HAL_Driver/Src/stm32l1xx_hal_gpio.c ****                   
 348:Drivers/STM32L1xx_HAL_Driver/Src/stm32l1xx_hal_gpio.c ****       /* Configure the default value IO Output Type */
 349:Drivers/STM32L1xx_HAL_Driver/Src/stm32l1xx_hal_gpio.c ****       CLEAR_BIT(GPIOx->OTYPER, GPIO_OTYPER_OT_0 << position) ;
 350:Drivers/STM32L1xx_HAL_Driver/Src/stm32l1xx_hal_gpio.c ****   
 351:Drivers/STM32L1xx_HAL_Driver/Src/stm32l1xx_hal_gpio.c ****       /* Deactivate the Pull-up oand Pull-down resistor for the current IO */
 352:Drivers/STM32L1xx_HAL_Driver/Src/stm32l1xx_hal_gpio.c ****       CLEAR_BIT(GPIOx->PUPDR, GPIO_PUPDR_PUPDR0 << (position * 2));
 353:Drivers/STM32L1xx_HAL_Driver/Src/stm32l1xx_hal_gpio.c **** 
 354:Drivers/STM32L1xx_HAL_Driver/Src/stm32l1xx_hal_gpio.c ****       /*------------------------- EXTI Mode Configuration --------------------*/
 355:Drivers/STM32L1xx_HAL_Driver/Src/stm32l1xx_hal_gpio.c ****       /* Clear the External Interrupt or Event for the current IO */
 356:Drivers/STM32L1xx_HAL_Driver/Src/stm32l1xx_hal_gpio.c ****       
 357:Drivers/STM32L1xx_HAL_Driver/Src/stm32l1xx_hal_gpio.c ****       tmp = SYSCFG->EXTICR[position >> 2];
 358:Drivers/STM32L1xx_HAL_Driver/Src/stm32l1xx_hal_gpio.c ****       tmp &= ((0x0FU) << (4 * (position & 0x03)));
 359:Drivers/STM32L1xx_HAL_Driver/Src/stm32l1xx_hal_gpio.c ****       if(tmp == (GPIO_GET_INDEX(GPIOx) << (4 * (position & 0x03))))
 371              		.loc 1 359 0
ARM GAS  /tmp/ccVA0YGW.s 			page 14


 372 000c 0425     		movs	r5, #4
 373 000e 00E0     		b	.L27
 374              	.L29:
 375 0010 0025     		movs	r5, #0
 376              	.L27:
 377              		.loc 1 359 0 is_stmt 0 discriminator 20
 378 0012 05FA02F2 		lsl	r2, r5, r2
 379 0016 9442     		cmp	r4, r2
 380 0018 4CD0     		beq	.L38
 381              	.LVL49:
 382              	.L26:
 360:Drivers/STM32L1xx_HAL_Driver/Src/stm32l1xx_hal_gpio.c ****       {
 361:Drivers/STM32L1xx_HAL_Driver/Src/stm32l1xx_hal_gpio.c ****         tmp = (0x0FU) << (4 * (position & 0x03));
 362:Drivers/STM32L1xx_HAL_Driver/Src/stm32l1xx_hal_gpio.c ****         CLEAR_BIT(SYSCFG->EXTICR[position >> 2], tmp);
 363:Drivers/STM32L1xx_HAL_Driver/Src/stm32l1xx_hal_gpio.c ****         
 364:Drivers/STM32L1xx_HAL_Driver/Src/stm32l1xx_hal_gpio.c ****         /* Clear EXTI line configuration */
 365:Drivers/STM32L1xx_HAL_Driver/Src/stm32l1xx_hal_gpio.c ****         CLEAR_BIT(EXTI->IMR, (uint32_t)iocurrent);
 366:Drivers/STM32L1xx_HAL_Driver/Src/stm32l1xx_hal_gpio.c ****         CLEAR_BIT(EXTI->EMR, (uint32_t)iocurrent);
 367:Drivers/STM32L1xx_HAL_Driver/Src/stm32l1xx_hal_gpio.c ****         
 368:Drivers/STM32L1xx_HAL_Driver/Src/stm32l1xx_hal_gpio.c ****         /* Clear Rising Falling edge configuration */
 369:Drivers/STM32L1xx_HAL_Driver/Src/stm32l1xx_hal_gpio.c ****         CLEAR_BIT(EXTI->RTSR, (uint32_t)iocurrent);
 370:Drivers/STM32L1xx_HAL_Driver/Src/stm32l1xx_hal_gpio.c ****         CLEAR_BIT(EXTI->FTSR, (uint32_t)iocurrent);
 371:Drivers/STM32L1xx_HAL_Driver/Src/stm32l1xx_hal_gpio.c ****       }
 372:Drivers/STM32L1xx_HAL_Driver/Src/stm32l1xx_hal_gpio.c ****     }
 373:Drivers/STM32L1xx_HAL_Driver/Src/stm32l1xx_hal_gpio.c ****     
 374:Drivers/STM32L1xx_HAL_Driver/Src/stm32l1xx_hal_gpio.c ****     position++;
 383              		.loc 1 374 0 is_stmt 1
 384 001a 0133     		adds	r3, r3, #1
 385              	.LVL50:
 331:Drivers/STM32L1xx_HAL_Driver/Src/stm32l1xx_hal_gpio.c ****   {
 386              		.loc 1 331 0
 387 001c 31FA03F2 		lsrs	r2, r1, r3
 388 0020 64D0     		beq	.L39
 389              	.LVL51:
 390              	.L28:
 334:Drivers/STM32L1xx_HAL_Driver/Src/stm32l1xx_hal_gpio.c **** 
 391              		.loc 1 334 0
 392 0022 0122     		movs	r2, #1
 393 0024 9A40     		lsls	r2, r2, r3
 394              	.LVL52:
 336:Drivers/STM32L1xx_HAL_Driver/Src/stm32l1xx_hal_gpio.c ****     {
 395              		.loc 1 336 0
 396 0026 11EA020E 		ands	lr, r1, r2
 397              	.LVL53:
 398 002a F6D0     		beq	.L26
 340:Drivers/STM32L1xx_HAL_Driver/Src/stm32l1xx_hal_gpio.c ****   
 399              		.loc 1 340 0
 400 002c 0568     		ldr	r5, [r0]
 401 002e 5E00     		lsls	r6, r3, #1
 402 0030 0324     		movs	r4, #3
 403 0032 B440     		lsls	r4, r4, r6
 404 0034 E443     		mvns	r4, r4
 405 0036 2540     		ands	r5, r5, r4
 406 0038 0560     		str	r5, [r0]
 343:Drivers/STM32L1xx_HAL_Driver/Src/stm32l1xx_hal_gpio.c ****   
 407              		.loc 1 343 0
 408 003a DF08     		lsrs	r7, r3, #3
ARM GAS  /tmp/ccVA0YGW.s 			page 15


 409 003c 0837     		adds	r7, r7, #8
 410 003e 50F827C0 		ldr	ip, [r0, r7, lsl #2]
 411 0042 03F00705 		and	r5, r3, #7
 412 0046 AD00     		lsls	r5, r5, #2
 413 0048 0F26     		movs	r6, #15
 414 004a 06FA05F5 		lsl	r5, r6, r5
 415 004e 2CEA0505 		bic	r5, ip, r5
 416 0052 40F82750 		str	r5, [r0, r7, lsl #2]
 346:Drivers/STM32L1xx_HAL_Driver/Src/stm32l1xx_hal_gpio.c ****                   
 417              		.loc 1 346 0
 418 0056 8568     		ldr	r5, [r0, #8]
 419 0058 2540     		ands	r5, r5, r4
 420 005a 8560     		str	r5, [r0, #8]
 349:Drivers/STM32L1xx_HAL_Driver/Src/stm32l1xx_hal_gpio.c ****   
 421              		.loc 1 349 0
 422 005c 4568     		ldr	r5, [r0, #4]
 423 005e 25EA0202 		bic	r2, r5, r2
 424 0062 4260     		str	r2, [r0, #4]
 352:Drivers/STM32L1xx_HAL_Driver/Src/stm32l1xx_hal_gpio.c **** 
 425              		.loc 1 352 0
 426 0064 C268     		ldr	r2, [r0, #12]
 427 0066 1440     		ands	r4, r4, r2
 428 0068 C460     		str	r4, [r0, #12]
 357:Drivers/STM32L1xx_HAL_Driver/Src/stm32l1xx_hal_gpio.c ****       tmp &= ((0x0FU) << (4 * (position & 0x03)));
 429              		.loc 1 357 0
 430 006a 9F08     		lsrs	r7, r3, #2
 431 006c BC1C     		adds	r4, r7, #2
 432 006e 204A     		ldr	r2, .L41
 433 0070 52F82440 		ldr	r4, [r2, r4, lsl #2]
 434              	.LVL54:
 358:Drivers/STM32L1xx_HAL_Driver/Src/stm32l1xx_hal_gpio.c ****       if(tmp == (GPIO_GET_INDEX(GPIOx) << (4 * (position & 0x03))))
 435              		.loc 1 358 0
 436 0074 03F00302 		and	r2, r3, #3
 437 0078 9200     		lsls	r2, r2, #2
 438 007a 9640     		lsls	r6, r6, r2
 439 007c 3440     		ands	r4, r4, r6
 440              	.LVL55:
 359:Drivers/STM32L1xx_HAL_Driver/Src/stm32l1xx_hal_gpio.c ****       {
 441              		.loc 1 359 0
 442 007e 1D4D     		ldr	r5, .L41+4
 443 0080 A842     		cmp	r0, r5
 444 0082 C5D0     		beq	.L29
 359:Drivers/STM32L1xx_HAL_Driver/Src/stm32l1xx_hal_gpio.c ****       {
 445              		.loc 1 359 0 is_stmt 0 discriminator 1
 446 0084 05F58065 		add	r5, r5, #1024
 447 0088 A842     		cmp	r0, r5
 448 008a 0DD0     		beq	.L30
 359:Drivers/STM32L1xx_HAL_Driver/Src/stm32l1xx_hal_gpio.c ****       {
 449              		.loc 1 359 0 discriminator 3
 450 008c 05F58065 		add	r5, r5, #1024
 451 0090 A842     		cmp	r0, r5
 452 0092 0BD0     		beq	.L31
 359:Drivers/STM32L1xx_HAL_Driver/Src/stm32l1xx_hal_gpio.c ****       {
 453              		.loc 1 359 0 discriminator 5
 454 0094 05F58065 		add	r5, r5, #1024
 455 0098 A842     		cmp	r0, r5
 456 009a 09D0     		beq	.L32
ARM GAS  /tmp/ccVA0YGW.s 			page 16


 359:Drivers/STM32L1xx_HAL_Driver/Src/stm32l1xx_hal_gpio.c ****       {
 457              		.loc 1 359 0 discriminator 7
 458 009c 05F58065 		add	r5, r5, #1024
 459 00a0 A842     		cmp	r0, r5
 460 00a2 B3D0     		beq	.L40
 359:Drivers/STM32L1xx_HAL_Driver/Src/stm32l1xx_hal_gpio.c ****       {
 461              		.loc 1 359 0
 462 00a4 0525     		movs	r5, #5
 463 00a6 B4E7     		b	.L27
 464              	.L30:
 465 00a8 0125     		movs	r5, #1
 466 00aa B2E7     		b	.L27
 467              	.L31:
 468 00ac 0225     		movs	r5, #2
 469 00ae B0E7     		b	.L27
 470              	.L32:
 471 00b0 0325     		movs	r5, #3
 472 00b2 AEE7     		b	.L27
 473              	.L38:
 474              	.LVL56:
 362:Drivers/STM32L1xx_HAL_Driver/Src/stm32l1xx_hal_gpio.c ****         
 475              		.loc 1 362 0 is_stmt 1
 476 00b4 0E4D     		ldr	r5, .L41
 477 00b6 BA1C     		adds	r2, r7, #2
 478 00b8 55F82240 		ldr	r4, [r5, r2, lsl #2]
 479 00bc 24EA0606 		bic	r6, r4, r6
 480              	.LVL57:
 481 00c0 45F82260 		str	r6, [r5, r2, lsl #2]
 365:Drivers/STM32L1xx_HAL_Driver/Src/stm32l1xx_hal_gpio.c ****         CLEAR_BIT(EXTI->EMR, (uint32_t)iocurrent);
 482              		.loc 1 365 0
 483 00c4 0C4C     		ldr	r4, .L41+8
 484 00c6 2268     		ldr	r2, [r4]
 485 00c8 6FEA0E0E 		mvn	lr, lr
 486              	.LVL58:
 487 00cc 02EA0E02 		and	r2, r2, lr
 488 00d0 2260     		str	r2, [r4]
 366:Drivers/STM32L1xx_HAL_Driver/Src/stm32l1xx_hal_gpio.c ****         
 489              		.loc 1 366 0
 490 00d2 6268     		ldr	r2, [r4, #4]
 491 00d4 0EEA0202 		and	r2, lr, r2
 492 00d8 6260     		str	r2, [r4, #4]
 369:Drivers/STM32L1xx_HAL_Driver/Src/stm32l1xx_hal_gpio.c ****         CLEAR_BIT(EXTI->FTSR, (uint32_t)iocurrent);
 493              		.loc 1 369 0
 494 00da A268     		ldr	r2, [r4, #8]
 495 00dc 0EEA0202 		and	r2, lr, r2
 496 00e0 A260     		str	r2, [r4, #8]
 370:Drivers/STM32L1xx_HAL_Driver/Src/stm32l1xx_hal_gpio.c ****       }
 497              		.loc 1 370 0
 498 00e2 E268     		ldr	r2, [r4, #12]
 499 00e4 0EEA0202 		and	r2, lr, r2
 500 00e8 E260     		str	r2, [r4, #12]
 501 00ea 96E7     		b	.L26
 502              	.LVL59:
 503              	.L39:
 375:Drivers/STM32L1xx_HAL_Driver/Src/stm32l1xx_hal_gpio.c ****   }
 376:Drivers/STM32L1xx_HAL_Driver/Src/stm32l1xx_hal_gpio.c **** }
 504              		.loc 1 376 0
ARM GAS  /tmp/ccVA0YGW.s 			page 17


 505 00ec F0BD     		pop	{r4, r5, r6, r7, pc}
 506              	.LVL60:
 507              	.L37:
 508              	.LCFI4:
 509              		.cfi_def_cfa_offset 0
 510              		.cfi_restore 4
 511              		.cfi_restore 5
 512              		.cfi_restore 6
 513              		.cfi_restore 7
 514              		.cfi_restore 14
 515 00ee 7047     		bx	lr
 516              	.L42:
 517              		.align	2
 518              	.L41:
 519 00f0 00000140 		.word	1073807360
 520 00f4 00000240 		.word	1073872896
 521 00f8 00040140 		.word	1073808384
 522              		.cfi_endproc
 523              	.LFE65:
 525              		.section	.text.HAL_GPIO_ReadPin,"ax",%progbits
 526              		.align	1
 527              		.global	HAL_GPIO_ReadPin
 528              		.syntax unified
 529              		.thumb
 530              		.thumb_func
 531              		.fpu softvfp
 533              	HAL_GPIO_ReadPin:
 534              	.LFB66:
 377:Drivers/STM32L1xx_HAL_Driver/Src/stm32l1xx_hal_gpio.c **** 
 378:Drivers/STM32L1xx_HAL_Driver/Src/stm32l1xx_hal_gpio.c **** /**
 379:Drivers/STM32L1xx_HAL_Driver/Src/stm32l1xx_hal_gpio.c ****   * @}
 380:Drivers/STM32L1xx_HAL_Driver/Src/stm32l1xx_hal_gpio.c ****   */
 381:Drivers/STM32L1xx_HAL_Driver/Src/stm32l1xx_hal_gpio.c **** 
 382:Drivers/STM32L1xx_HAL_Driver/Src/stm32l1xx_hal_gpio.c **** /** @addtogroup GPIO_Exported_Functions_Group2
 383:Drivers/STM32L1xx_HAL_Driver/Src/stm32l1xx_hal_gpio.c ****  *  @brief GPIO Read, Write, Toggle, Lock and EXTI management functions.
 384:Drivers/STM32L1xx_HAL_Driver/Src/stm32l1xx_hal_gpio.c ****  *
 385:Drivers/STM32L1xx_HAL_Driver/Src/stm32l1xx_hal_gpio.c **** @verbatim   
 386:Drivers/STM32L1xx_HAL_Driver/Src/stm32l1xx_hal_gpio.c ****  ===============================================================================
 387:Drivers/STM32L1xx_HAL_Driver/Src/stm32l1xx_hal_gpio.c ****                        ##### IO operation functions #####
 388:Drivers/STM32L1xx_HAL_Driver/Src/stm32l1xx_hal_gpio.c ****  ===============================================================================  
 389:Drivers/STM32L1xx_HAL_Driver/Src/stm32l1xx_hal_gpio.c **** 
 390:Drivers/STM32L1xx_HAL_Driver/Src/stm32l1xx_hal_gpio.c **** @endverbatim
 391:Drivers/STM32L1xx_HAL_Driver/Src/stm32l1xx_hal_gpio.c ****   * @{
 392:Drivers/STM32L1xx_HAL_Driver/Src/stm32l1xx_hal_gpio.c ****   */
 393:Drivers/STM32L1xx_HAL_Driver/Src/stm32l1xx_hal_gpio.c **** 
 394:Drivers/STM32L1xx_HAL_Driver/Src/stm32l1xx_hal_gpio.c **** /**
 395:Drivers/STM32L1xx_HAL_Driver/Src/stm32l1xx_hal_gpio.c ****   * @brief  Reads the specified input port pin.
 396:Drivers/STM32L1xx_HAL_Driver/Src/stm32l1xx_hal_gpio.c ****   * @param  GPIOx: where x can be (A..G depending on device used) to select the GPIO peripheral for
 397:Drivers/STM32L1xx_HAL_Driver/Src/stm32l1xx_hal_gpio.c ****   * @param  GPIO_Pin: specifies the port bit to read.
 398:Drivers/STM32L1xx_HAL_Driver/Src/stm32l1xx_hal_gpio.c ****   *         This parameter can be GPIO_PIN_x where x can be (0..15).
 399:Drivers/STM32L1xx_HAL_Driver/Src/stm32l1xx_hal_gpio.c ****   * @retval The input port pin value.
 400:Drivers/STM32L1xx_HAL_Driver/Src/stm32l1xx_hal_gpio.c ****   */
 401:Drivers/STM32L1xx_HAL_Driver/Src/stm32l1xx_hal_gpio.c **** GPIO_PinState HAL_GPIO_ReadPin(GPIO_TypeDef* GPIOx, uint16_t GPIO_Pin)
 402:Drivers/STM32L1xx_HAL_Driver/Src/stm32l1xx_hal_gpio.c **** {
 535              		.loc 1 402 0
 536              		.cfi_startproc
 537              		@ args = 0, pretend = 0, frame = 0
ARM GAS  /tmp/ccVA0YGW.s 			page 18


 538              		@ frame_needed = 0, uses_anonymous_args = 0
 539              		@ link register save eliminated.
 540              	.LVL61:
 403:Drivers/STM32L1xx_HAL_Driver/Src/stm32l1xx_hal_gpio.c ****   GPIO_PinState bitstatus;
 404:Drivers/STM32L1xx_HAL_Driver/Src/stm32l1xx_hal_gpio.c **** 
 405:Drivers/STM32L1xx_HAL_Driver/Src/stm32l1xx_hal_gpio.c ****   /* Check the parameters */
 406:Drivers/STM32L1xx_HAL_Driver/Src/stm32l1xx_hal_gpio.c ****   assert_param(IS_GPIO_PIN(GPIO_Pin));
 407:Drivers/STM32L1xx_HAL_Driver/Src/stm32l1xx_hal_gpio.c **** 
 408:Drivers/STM32L1xx_HAL_Driver/Src/stm32l1xx_hal_gpio.c ****   if ((GPIOx->IDR & GPIO_Pin) != (uint32_t)GPIO_PIN_RESET)
 541              		.loc 1 408 0
 542 0000 0369     		ldr	r3, [r0, #16]
 543 0002 1942     		tst	r1, r3
 544 0004 01D1     		bne	.L46
 409:Drivers/STM32L1xx_HAL_Driver/Src/stm32l1xx_hal_gpio.c ****   {
 410:Drivers/STM32L1xx_HAL_Driver/Src/stm32l1xx_hal_gpio.c ****     bitstatus = GPIO_PIN_SET;
 411:Drivers/STM32L1xx_HAL_Driver/Src/stm32l1xx_hal_gpio.c ****   }
 412:Drivers/STM32L1xx_HAL_Driver/Src/stm32l1xx_hal_gpio.c ****   else
 413:Drivers/STM32L1xx_HAL_Driver/Src/stm32l1xx_hal_gpio.c ****   {
 414:Drivers/STM32L1xx_HAL_Driver/Src/stm32l1xx_hal_gpio.c ****     bitstatus = GPIO_PIN_RESET;
 545              		.loc 1 414 0
 546 0006 0020     		movs	r0, #0
 547              	.LVL62:
 415:Drivers/STM32L1xx_HAL_Driver/Src/stm32l1xx_hal_gpio.c ****   }
 416:Drivers/STM32L1xx_HAL_Driver/Src/stm32l1xx_hal_gpio.c ****   return bitstatus;
 417:Drivers/STM32L1xx_HAL_Driver/Src/stm32l1xx_hal_gpio.c **** }
 548              		.loc 1 417 0
 549 0008 7047     		bx	lr
 550              	.LVL63:
 551              	.L46:
 410:Drivers/STM32L1xx_HAL_Driver/Src/stm32l1xx_hal_gpio.c ****   }
 552              		.loc 1 410 0
 553 000a 0120     		movs	r0, #1
 554              	.LVL64:
 555 000c 7047     		bx	lr
 556              		.cfi_endproc
 557              	.LFE66:
 559              		.section	.text.HAL_GPIO_WritePin,"ax",%progbits
 560              		.align	1
 561              		.global	HAL_GPIO_WritePin
 562              		.syntax unified
 563              		.thumb
 564              		.thumb_func
 565              		.fpu softvfp
 567              	HAL_GPIO_WritePin:
 568              	.LFB67:
 418:Drivers/STM32L1xx_HAL_Driver/Src/stm32l1xx_hal_gpio.c **** 
 419:Drivers/STM32L1xx_HAL_Driver/Src/stm32l1xx_hal_gpio.c **** /**
 420:Drivers/STM32L1xx_HAL_Driver/Src/stm32l1xx_hal_gpio.c ****   * @brief  Sets or clears the selected data port bit.
 421:Drivers/STM32L1xx_HAL_Driver/Src/stm32l1xx_hal_gpio.c ****   * @note   This function uses GPIOx_BSRR register to allow atomic read/modify 
 422:Drivers/STM32L1xx_HAL_Driver/Src/stm32l1xx_hal_gpio.c ****   *         accesses. In this way, there is no risk of an IRQ occurring between
 423:Drivers/STM32L1xx_HAL_Driver/Src/stm32l1xx_hal_gpio.c ****   *         the read and the modify access.
 424:Drivers/STM32L1xx_HAL_Driver/Src/stm32l1xx_hal_gpio.c ****   * @param  GPIOx: where x can be (A..G depending on device used) to select the GPIO peripheral for
 425:Drivers/STM32L1xx_HAL_Driver/Src/stm32l1xx_hal_gpio.c ****   * @param  GPIO_Pin: specifies the port bit to be written.
 426:Drivers/STM32L1xx_HAL_Driver/Src/stm32l1xx_hal_gpio.c ****   *          This parameter can be one of GPIO_PIN_x where x can be (0..15).
 427:Drivers/STM32L1xx_HAL_Driver/Src/stm32l1xx_hal_gpio.c ****   * @param  PinState: specifies the value to be written to the selected bit.
 428:Drivers/STM32L1xx_HAL_Driver/Src/stm32l1xx_hal_gpio.c ****   *          This parameter can be one of the GPIO_PinState enum values:
 429:Drivers/STM32L1xx_HAL_Driver/Src/stm32l1xx_hal_gpio.c ****   *            @arg GPIO_PIN_RESET: to clear the port pin
ARM GAS  /tmp/ccVA0YGW.s 			page 19


 430:Drivers/STM32L1xx_HAL_Driver/Src/stm32l1xx_hal_gpio.c ****   *            @arg GPIO_PIN_SET: to set the port pin
 431:Drivers/STM32L1xx_HAL_Driver/Src/stm32l1xx_hal_gpio.c ****   * @retval None
 432:Drivers/STM32L1xx_HAL_Driver/Src/stm32l1xx_hal_gpio.c ****   */
 433:Drivers/STM32L1xx_HAL_Driver/Src/stm32l1xx_hal_gpio.c **** void HAL_GPIO_WritePin(GPIO_TypeDef* GPIOx, uint16_t GPIO_Pin, GPIO_PinState PinState)
 434:Drivers/STM32L1xx_HAL_Driver/Src/stm32l1xx_hal_gpio.c **** {
 569              		.loc 1 434 0
 570              		.cfi_startproc
 571              		@ args = 0, pretend = 0, frame = 0
 572              		@ frame_needed = 0, uses_anonymous_args = 0
 573              		@ link register save eliminated.
 574              	.LVL65:
 435:Drivers/STM32L1xx_HAL_Driver/Src/stm32l1xx_hal_gpio.c ****   /* Check the parameters */
 436:Drivers/STM32L1xx_HAL_Driver/Src/stm32l1xx_hal_gpio.c ****   assert_param(IS_GPIO_PIN(GPIO_Pin));
 437:Drivers/STM32L1xx_HAL_Driver/Src/stm32l1xx_hal_gpio.c ****   assert_param(IS_GPIO_PIN_ACTION(PinState));
 438:Drivers/STM32L1xx_HAL_Driver/Src/stm32l1xx_hal_gpio.c **** 
 439:Drivers/STM32L1xx_HAL_Driver/Src/stm32l1xx_hal_gpio.c ****   if (PinState != GPIO_PIN_RESET)
 575              		.loc 1 439 0
 576 0000 12B9     		cbnz	r2, .L50
 440:Drivers/STM32L1xx_HAL_Driver/Src/stm32l1xx_hal_gpio.c ****   {
 441:Drivers/STM32L1xx_HAL_Driver/Src/stm32l1xx_hal_gpio.c ****     GPIOx->BSRR = (uint32_t)GPIO_Pin;
 442:Drivers/STM32L1xx_HAL_Driver/Src/stm32l1xx_hal_gpio.c ****   }
 443:Drivers/STM32L1xx_HAL_Driver/Src/stm32l1xx_hal_gpio.c ****   else
 444:Drivers/STM32L1xx_HAL_Driver/Src/stm32l1xx_hal_gpio.c ****   {
 445:Drivers/STM32L1xx_HAL_Driver/Src/stm32l1xx_hal_gpio.c ****     GPIOx->BSRR = (uint32_t)GPIO_Pin << 16 ;
 577              		.loc 1 445 0
 578 0002 0904     		lsls	r1, r1, #16
 579              	.LVL66:
 580 0004 8161     		str	r1, [r0, #24]
 581 0006 7047     		bx	lr
 582              	.LVL67:
 583              	.L50:
 441:Drivers/STM32L1xx_HAL_Driver/Src/stm32l1xx_hal_gpio.c ****   }
 584              		.loc 1 441 0
 585 0008 8161     		str	r1, [r0, #24]
 586 000a 7047     		bx	lr
 587              		.cfi_endproc
 588              	.LFE67:
 590              		.section	.text.HAL_GPIO_TogglePin,"ax",%progbits
 591              		.align	1
 592              		.global	HAL_GPIO_TogglePin
 593              		.syntax unified
 594              		.thumb
 595              		.thumb_func
 596              		.fpu softvfp
 598              	HAL_GPIO_TogglePin:
 599              	.LFB68:
 446:Drivers/STM32L1xx_HAL_Driver/Src/stm32l1xx_hal_gpio.c ****   }
 447:Drivers/STM32L1xx_HAL_Driver/Src/stm32l1xx_hal_gpio.c **** }
 448:Drivers/STM32L1xx_HAL_Driver/Src/stm32l1xx_hal_gpio.c ****   
 449:Drivers/STM32L1xx_HAL_Driver/Src/stm32l1xx_hal_gpio.c **** /**
 450:Drivers/STM32L1xx_HAL_Driver/Src/stm32l1xx_hal_gpio.c ****   * @brief  Toggles the specified GPIO pin
 451:Drivers/STM32L1xx_HAL_Driver/Src/stm32l1xx_hal_gpio.c ****   * @param  GPIOx: where x can be (A..G depending on device used) to select the GPIO peripheral for
 452:Drivers/STM32L1xx_HAL_Driver/Src/stm32l1xx_hal_gpio.c ****   * @param  GPIO_Pin: specifies the pins to be toggled.
 453:Drivers/STM32L1xx_HAL_Driver/Src/stm32l1xx_hal_gpio.c ****   * @retval None
 454:Drivers/STM32L1xx_HAL_Driver/Src/stm32l1xx_hal_gpio.c ****   */
 455:Drivers/STM32L1xx_HAL_Driver/Src/stm32l1xx_hal_gpio.c **** void HAL_GPIO_TogglePin(GPIO_TypeDef* GPIOx, uint16_t GPIO_Pin)
 456:Drivers/STM32L1xx_HAL_Driver/Src/stm32l1xx_hal_gpio.c **** {
ARM GAS  /tmp/ccVA0YGW.s 			page 20


 600              		.loc 1 456 0
 601              		.cfi_startproc
 602              		@ args = 0, pretend = 0, frame = 0
 603              		@ frame_needed = 0, uses_anonymous_args = 0
 604              		@ link register save eliminated.
 605              	.LVL68:
 457:Drivers/STM32L1xx_HAL_Driver/Src/stm32l1xx_hal_gpio.c ****   /* Check the parameters */
 458:Drivers/STM32L1xx_HAL_Driver/Src/stm32l1xx_hal_gpio.c ****   assert_param(IS_GPIO_PIN(GPIO_Pin));
 459:Drivers/STM32L1xx_HAL_Driver/Src/stm32l1xx_hal_gpio.c **** 
 460:Drivers/STM32L1xx_HAL_Driver/Src/stm32l1xx_hal_gpio.c ****   GPIOx->ODR ^= GPIO_Pin;
 606              		.loc 1 460 0
 607 0000 4369     		ldr	r3, [r0, #20]
 608 0002 5940     		eors	r1, r1, r3
 609              	.LVL69:
 610 0004 4161     		str	r1, [r0, #20]
 611 0006 7047     		bx	lr
 612              		.cfi_endproc
 613              	.LFE68:
 615              		.section	.text.HAL_GPIO_LockPin,"ax",%progbits
 616              		.align	1
 617              		.global	HAL_GPIO_LockPin
 618              		.syntax unified
 619              		.thumb
 620              		.thumb_func
 621              		.fpu softvfp
 623              	HAL_GPIO_LockPin:
 624              	.LFB69:
 461:Drivers/STM32L1xx_HAL_Driver/Src/stm32l1xx_hal_gpio.c **** }
 462:Drivers/STM32L1xx_HAL_Driver/Src/stm32l1xx_hal_gpio.c **** 
 463:Drivers/STM32L1xx_HAL_Driver/Src/stm32l1xx_hal_gpio.c **** /**
 464:Drivers/STM32L1xx_HAL_Driver/Src/stm32l1xx_hal_gpio.c **** * @brief  Locks GPIO Pins configuration registers.
 465:Drivers/STM32L1xx_HAL_Driver/Src/stm32l1xx_hal_gpio.c **** * @note   The locked registers are GPIOx_MODER, GPIOx_OTYPER, GPIOx_OSPEEDR,
 466:Drivers/STM32L1xx_HAL_Driver/Src/stm32l1xx_hal_gpio.c **** *         GPIOx_PUPDR, GPIOx_AFRL and GPIOx_AFRH.
 467:Drivers/STM32L1xx_HAL_Driver/Src/stm32l1xx_hal_gpio.c **** * @note   The configuration of the locked GPIO pins can no longer be modified
 468:Drivers/STM32L1xx_HAL_Driver/Src/stm32l1xx_hal_gpio.c **** *         until the next reset.
 469:Drivers/STM32L1xx_HAL_Driver/Src/stm32l1xx_hal_gpio.c **** * @note   Limitation concerning GPIOx_OTYPER: Locking of GPIOx_OTYPER[i] with i = 15..8
 470:Drivers/STM32L1xx_HAL_Driver/Src/stm32l1xx_hal_gpio.c **** *         depends from setting of GPIOx_LCKR[i-8] and not from GPIOx_LCKR[i].
 471:Drivers/STM32L1xx_HAL_Driver/Src/stm32l1xx_hal_gpio.c **** *         GPIOx_LCKR[i-8] is locking GPIOx_OTYPER[i] together with GPIOx_OTYPER[i-8].
 472:Drivers/STM32L1xx_HAL_Driver/Src/stm32l1xx_hal_gpio.c **** *         It is not possible to lock GPIOx_OTYPER[i] with i = 15..8, without locking also
 473:Drivers/STM32L1xx_HAL_Driver/Src/stm32l1xx_hal_gpio.c **** *         GPIOx_OTYPER[i-8].
 474:Drivers/STM32L1xx_HAL_Driver/Src/stm32l1xx_hal_gpio.c **** *         Workaround: When calling HAL_GPIO_LockPin with GPIO_Pin from GPIO_PIN_8 to GPIO_PIN_15,
 475:Drivers/STM32L1xx_HAL_Driver/Src/stm32l1xx_hal_gpio.c **** *         you must call also HAL_GPIO_LockPin with GPIO_Pin - 8. 
 476:Drivers/STM32L1xx_HAL_Driver/Src/stm32l1xx_hal_gpio.c **** *         (When locking a pin from GPIO_PIN_8 to GPIO_PIN_15, you must lock also the corresponding 
 477:Drivers/STM32L1xx_HAL_Driver/Src/stm32l1xx_hal_gpio.c **** *         GPIO_PIN_0 to GPIO_PIN_7).
 478:Drivers/STM32L1xx_HAL_Driver/Src/stm32l1xx_hal_gpio.c **** * @param  GPIOx: where x can be (A..G depending on device used) to select the GPIO peripheral for S
 479:Drivers/STM32L1xx_HAL_Driver/Src/stm32l1xx_hal_gpio.c **** * @param  GPIO_Pin: Specifies the port bit to be locked.
 480:Drivers/STM32L1xx_HAL_Driver/Src/stm32l1xx_hal_gpio.c **** *         This parameter can be any combination of GPIO_Pin_x where x can be (0..15).
 481:Drivers/STM32L1xx_HAL_Driver/Src/stm32l1xx_hal_gpio.c **** * @retval None
 482:Drivers/STM32L1xx_HAL_Driver/Src/stm32l1xx_hal_gpio.c **** */
 483:Drivers/STM32L1xx_HAL_Driver/Src/stm32l1xx_hal_gpio.c **** HAL_StatusTypeDef HAL_GPIO_LockPin(GPIO_TypeDef* GPIOx, uint16_t GPIO_Pin)
 484:Drivers/STM32L1xx_HAL_Driver/Src/stm32l1xx_hal_gpio.c **** {
 625              		.loc 1 484 0
 626              		.cfi_startproc
 627              		@ args = 0, pretend = 0, frame = 8
 628              		@ frame_needed = 0, uses_anonymous_args = 0
 629              		@ link register save eliminated.
 630              	.LVL70:
ARM GAS  /tmp/ccVA0YGW.s 			page 21


 631 0000 82B0     		sub	sp, sp, #8
 632              	.LCFI5:
 633              		.cfi_def_cfa_offset 8
 485:Drivers/STM32L1xx_HAL_Driver/Src/stm32l1xx_hal_gpio.c ****   __IO uint32_t tmp = GPIO_LCKR_LCKK;
 634              		.loc 1 485 0
 635 0002 4FF48033 		mov	r3, #65536
 636 0006 0193     		str	r3, [sp, #4]
 486:Drivers/STM32L1xx_HAL_Driver/Src/stm32l1xx_hal_gpio.c **** 
 487:Drivers/STM32L1xx_HAL_Driver/Src/stm32l1xx_hal_gpio.c ****   /* Check the parameters */
 488:Drivers/STM32L1xx_HAL_Driver/Src/stm32l1xx_hal_gpio.c ****   assert_param(IS_GPIO_LOCK_INSTANCE(GPIOx));
 489:Drivers/STM32L1xx_HAL_Driver/Src/stm32l1xx_hal_gpio.c ****   assert_param(IS_GPIO_PIN(GPIO_Pin));
 490:Drivers/STM32L1xx_HAL_Driver/Src/stm32l1xx_hal_gpio.c **** 
 491:Drivers/STM32L1xx_HAL_Driver/Src/stm32l1xx_hal_gpio.c ****   /* Apply lock key write sequence */
 492:Drivers/STM32L1xx_HAL_Driver/Src/stm32l1xx_hal_gpio.c ****   SET_BIT(tmp, GPIO_Pin);
 637              		.loc 1 492 0
 638 0008 019B     		ldr	r3, [sp, #4]
 639 000a 0B43     		orrs	r3, r3, r1
 640 000c 0193     		str	r3, [sp, #4]
 493:Drivers/STM32L1xx_HAL_Driver/Src/stm32l1xx_hal_gpio.c ****   /* Set LCKx bit(s): LCKK='1' + LCK[15-0] */
 494:Drivers/STM32L1xx_HAL_Driver/Src/stm32l1xx_hal_gpio.c ****   GPIOx->LCKR = tmp;
 641              		.loc 1 494 0
 642 000e 019B     		ldr	r3, [sp, #4]
 643 0010 C361     		str	r3, [r0, #28]
 495:Drivers/STM32L1xx_HAL_Driver/Src/stm32l1xx_hal_gpio.c ****   /* Reset LCKx bit(s): LCKK='0' + LCK[15-0] */
 496:Drivers/STM32L1xx_HAL_Driver/Src/stm32l1xx_hal_gpio.c ****   GPIOx->LCKR = GPIO_Pin;
 644              		.loc 1 496 0
 645 0012 C161     		str	r1, [r0, #28]
 497:Drivers/STM32L1xx_HAL_Driver/Src/stm32l1xx_hal_gpio.c ****   /* Set LCKx bit(s): LCKK='1' + LCK[15-0] */
 498:Drivers/STM32L1xx_HAL_Driver/Src/stm32l1xx_hal_gpio.c ****   GPIOx->LCKR = tmp;
 646              		.loc 1 498 0
 647 0014 019B     		ldr	r3, [sp, #4]
 648 0016 C361     		str	r3, [r0, #28]
 499:Drivers/STM32L1xx_HAL_Driver/Src/stm32l1xx_hal_gpio.c ****   /* Read LCKK bit*/
 500:Drivers/STM32L1xx_HAL_Driver/Src/stm32l1xx_hal_gpio.c ****   tmp = GPIOx->LCKR;
 649              		.loc 1 500 0
 650 0018 C369     		ldr	r3, [r0, #28]
 651 001a 0193     		str	r3, [sp, #4]
 501:Drivers/STM32L1xx_HAL_Driver/Src/stm32l1xx_hal_gpio.c **** 
 502:Drivers/STM32L1xx_HAL_Driver/Src/stm32l1xx_hal_gpio.c ****   if((GPIOx->LCKR & GPIO_LCKR_LCKK) != RESET)
 652              		.loc 1 502 0
 653 001c C369     		ldr	r3, [r0, #28]
 654 001e 13F4803F 		tst	r3, #65536
 655 0022 02D1     		bne	.L56
 503:Drivers/STM32L1xx_HAL_Driver/Src/stm32l1xx_hal_gpio.c ****   {
 504:Drivers/STM32L1xx_HAL_Driver/Src/stm32l1xx_hal_gpio.c ****     return HAL_OK;
 505:Drivers/STM32L1xx_HAL_Driver/Src/stm32l1xx_hal_gpio.c ****   }
 506:Drivers/STM32L1xx_HAL_Driver/Src/stm32l1xx_hal_gpio.c ****   else
 507:Drivers/STM32L1xx_HAL_Driver/Src/stm32l1xx_hal_gpio.c ****   {
 508:Drivers/STM32L1xx_HAL_Driver/Src/stm32l1xx_hal_gpio.c ****     return HAL_ERROR;
 656              		.loc 1 508 0
 657 0024 0120     		movs	r0, #1
 658              	.LVL71:
 659              	.L53:
 509:Drivers/STM32L1xx_HAL_Driver/Src/stm32l1xx_hal_gpio.c ****   }
 510:Drivers/STM32L1xx_HAL_Driver/Src/stm32l1xx_hal_gpio.c **** }
 660              		.loc 1 510 0
 661 0026 02B0     		add	sp, sp, #8
ARM GAS  /tmp/ccVA0YGW.s 			page 22


 662              	.LCFI6:
 663              		.cfi_remember_state
 664              		.cfi_def_cfa_offset 0
 665              		@ sp needed
 666 0028 7047     		bx	lr
 667              	.LVL72:
 668              	.L56:
 669              	.LCFI7:
 670              		.cfi_restore_state
 504:Drivers/STM32L1xx_HAL_Driver/Src/stm32l1xx_hal_gpio.c ****   }
 671              		.loc 1 504 0
 672 002a 0020     		movs	r0, #0
 673              	.LVL73:
 674 002c FBE7     		b	.L53
 675              		.cfi_endproc
 676              	.LFE69:
 678              		.section	.text.HAL_GPIO_EXTI_Callback,"ax",%progbits
 679              		.align	1
 680              		.weak	HAL_GPIO_EXTI_Callback
 681              		.syntax unified
 682              		.thumb
 683              		.thumb_func
 684              		.fpu softvfp
 686              	HAL_GPIO_EXTI_Callback:
 687              	.LFB71:
 511:Drivers/STM32L1xx_HAL_Driver/Src/stm32l1xx_hal_gpio.c **** 
 512:Drivers/STM32L1xx_HAL_Driver/Src/stm32l1xx_hal_gpio.c **** /**
 513:Drivers/STM32L1xx_HAL_Driver/Src/stm32l1xx_hal_gpio.c ****   * @brief  This function handles EXTI interrupt request.
 514:Drivers/STM32L1xx_HAL_Driver/Src/stm32l1xx_hal_gpio.c ****   * @param  GPIO_Pin: Specifies the port pin connected to corresponding EXTI line.
 515:Drivers/STM32L1xx_HAL_Driver/Src/stm32l1xx_hal_gpio.c ****   * @retval None
 516:Drivers/STM32L1xx_HAL_Driver/Src/stm32l1xx_hal_gpio.c ****   */
 517:Drivers/STM32L1xx_HAL_Driver/Src/stm32l1xx_hal_gpio.c **** void HAL_GPIO_EXTI_IRQHandler(uint16_t GPIO_Pin)
 518:Drivers/STM32L1xx_HAL_Driver/Src/stm32l1xx_hal_gpio.c **** {
 519:Drivers/STM32L1xx_HAL_Driver/Src/stm32l1xx_hal_gpio.c ****   /* EXTI line interrupt detected */
 520:Drivers/STM32L1xx_HAL_Driver/Src/stm32l1xx_hal_gpio.c ****   if(__HAL_GPIO_EXTI_GET_IT(GPIO_Pin) != RESET) 
 521:Drivers/STM32L1xx_HAL_Driver/Src/stm32l1xx_hal_gpio.c ****   { 
 522:Drivers/STM32L1xx_HAL_Driver/Src/stm32l1xx_hal_gpio.c ****     __HAL_GPIO_EXTI_CLEAR_IT(GPIO_Pin);
 523:Drivers/STM32L1xx_HAL_Driver/Src/stm32l1xx_hal_gpio.c ****     HAL_GPIO_EXTI_Callback(GPIO_Pin);
 524:Drivers/STM32L1xx_HAL_Driver/Src/stm32l1xx_hal_gpio.c ****   }
 525:Drivers/STM32L1xx_HAL_Driver/Src/stm32l1xx_hal_gpio.c **** }
 526:Drivers/STM32L1xx_HAL_Driver/Src/stm32l1xx_hal_gpio.c **** 
 527:Drivers/STM32L1xx_HAL_Driver/Src/stm32l1xx_hal_gpio.c **** /**
 528:Drivers/STM32L1xx_HAL_Driver/Src/stm32l1xx_hal_gpio.c ****   * @brief  EXTI line detection callbacks.
 529:Drivers/STM32L1xx_HAL_Driver/Src/stm32l1xx_hal_gpio.c ****   * @param  GPIO_Pin: Specifies the port pin connected to corresponding EXTI line.
 530:Drivers/STM32L1xx_HAL_Driver/Src/stm32l1xx_hal_gpio.c ****   * @retval None
 531:Drivers/STM32L1xx_HAL_Driver/Src/stm32l1xx_hal_gpio.c ****   */
 532:Drivers/STM32L1xx_HAL_Driver/Src/stm32l1xx_hal_gpio.c **** __weak void HAL_GPIO_EXTI_Callback(uint16_t GPIO_Pin)
 533:Drivers/STM32L1xx_HAL_Driver/Src/stm32l1xx_hal_gpio.c **** {
 688              		.loc 1 533 0
 689              		.cfi_startproc
 690              		@ args = 0, pretend = 0, frame = 0
 691              		@ frame_needed = 0, uses_anonymous_args = 0
 692              		@ link register save eliminated.
 693              	.LVL74:
 694 0000 7047     		bx	lr
 695              		.cfi_endproc
 696              	.LFE71:
ARM GAS  /tmp/ccVA0YGW.s 			page 23


 698              		.section	.text.HAL_GPIO_EXTI_IRQHandler,"ax",%progbits
 699              		.align	1
 700              		.global	HAL_GPIO_EXTI_IRQHandler
 701              		.syntax unified
 702              		.thumb
 703              		.thumb_func
 704              		.fpu softvfp
 706              	HAL_GPIO_EXTI_IRQHandler:
 707              	.LFB70:
 518:Drivers/STM32L1xx_HAL_Driver/Src/stm32l1xx_hal_gpio.c ****   /* EXTI line interrupt detected */
 708              		.loc 1 518 0
 709              		.cfi_startproc
 710              		@ args = 0, pretend = 0, frame = 0
 711              		@ frame_needed = 0, uses_anonymous_args = 0
 712              	.LVL75:
 518:Drivers/STM32L1xx_HAL_Driver/Src/stm32l1xx_hal_gpio.c ****   /* EXTI line interrupt detected */
 713              		.loc 1 518 0
 714 0000 08B5     		push	{r3, lr}
 715              	.LCFI8:
 716              		.cfi_def_cfa_offset 8
 717              		.cfi_offset 3, -8
 718              		.cfi_offset 14, -4
 520:Drivers/STM32L1xx_HAL_Driver/Src/stm32l1xx_hal_gpio.c ****   { 
 719              		.loc 1 520 0
 720 0002 054B     		ldr	r3, .L62
 721 0004 5B69     		ldr	r3, [r3, #20]
 722 0006 0342     		tst	r3, r0
 723 0008 00D1     		bne	.L61
 724              	.LVL76:
 725              	.L58:
 726 000a 08BD     		pop	{r3, pc}
 727              	.LVL77:
 728              	.L61:
 522:Drivers/STM32L1xx_HAL_Driver/Src/stm32l1xx_hal_gpio.c ****     HAL_GPIO_EXTI_Callback(GPIO_Pin);
 729              		.loc 1 522 0
 730 000c 024B     		ldr	r3, .L62
 731 000e 5861     		str	r0, [r3, #20]
 523:Drivers/STM32L1xx_HAL_Driver/Src/stm32l1xx_hal_gpio.c ****   }
 732              		.loc 1 523 0
 733 0010 FFF7FEFF 		bl	HAL_GPIO_EXTI_Callback
 734              	.LVL78:
 525:Drivers/STM32L1xx_HAL_Driver/Src/stm32l1xx_hal_gpio.c **** 
 735              		.loc 1 525 0
 736 0014 F9E7     		b	.L58
 737              	.L63:
 738 0016 00BF     		.align	2
 739              	.L62:
 740 0018 00040140 		.word	1073808384
 741              		.cfi_endproc
 742              	.LFE70:
 744              		.text
 745              	.Letext0:
 746              		.file 2 "/home/ricardo/opt/gcc-arm-none-eabi-6-2017-q1-update/arm-none-eabi/include/machine/_defau
 747              		.file 3 "/home/ricardo/opt/gcc-arm-none-eabi-6-2017-q1-update/arm-none-eabi/include/sys/_stdint.h"
 748              		.file 4 "Drivers/CMSIS/Include/core_cm3.h"
 749              		.file 5 "Drivers/CMSIS/Device/ST/STM32L1xx/Include/system_stm32l1xx.h"
 750              		.file 6 "Drivers/CMSIS/Device/ST/STM32L1xx/Include/stm32l151xb.h"
ARM GAS  /tmp/ccVA0YGW.s 			page 24


 751              		.file 7 "/home/ricardo/opt/gcc-arm-none-eabi-6-2017-q1-update/arm-none-eabi/include/sys/lock.h"
 752              		.file 8 "/home/ricardo/opt/gcc-arm-none-eabi-6-2017-q1-update/arm-none-eabi/include/sys/_types.h"
 753              		.file 9 "/home/ricardo/opt/gcc-arm-none-eabi-6-2017-q1-update/lib/gcc/arm-none-eabi/6.3.1/include/
 754              		.file 10 "/home/ricardo/opt/gcc-arm-none-eabi-6-2017-q1-update/arm-none-eabi/include/sys/reent.h"
 755              		.file 11 "Drivers/CMSIS/Device/ST/STM32L1xx/Include/stm32l1xx.h"
 756              		.file 12 "Drivers/STM32L1xx_HAL_Driver/Inc/stm32l1xx_hal_def.h"
 757              		.file 13 "Drivers/STM32L1xx_HAL_Driver/Inc/stm32l1xx_hal_gpio.h"
ARM GAS  /tmp/ccVA0YGW.s 			page 25

