ARM GAS  /tmp/ccv6Is1z.s 			page 1


   1              		.cpu cortex-m3
   2              		.eabi_attribute 20, 1
   3              		.eabi_attribute 21, 1
   4              		.eabi_attribute 23, 3
   5              		.eabi_attribute 24, 1
   6              		.eabi_attribute 25, 1
   7              		.eabi_attribute 26, 1
   8              		.eabi_attribute 30, 1
   9              		.eabi_attribute 34, 1
  10              		.eabi_attribute 18, 4
  11              		.file	"tim.c"
  12              		.text
  13              	.Ltext0:
  14              		.cfi_sections	.debug_frame
  15              		.section	.text.MX_TIM4_Init,"ax",%progbits
  16              		.align	1
  17              		.global	MX_TIM4_Init
  18              		.syntax unified
  19              		.thumb
  20              		.thumb_func
  21              		.fpu softvfp
  23              	MX_TIM4_Init:
  24              	.LFB64:
  25              		.file 1 "Src/tim.c"
   1:Src/tim.c     **** /**
   2:Src/tim.c     ****   ******************************************************************************
   3:Src/tim.c     ****   * File Name          : TIM.c
   4:Src/tim.c     ****   * Description        : This file provides code for the configuration
   5:Src/tim.c     ****   *                      of the TIM instances.
   6:Src/tim.c     ****   ******************************************************************************
   7:Src/tim.c     ****   ** This notice applies to any and all portions of this file
   8:Src/tim.c     ****   * that are not between comment pairs USER CODE BEGIN and
   9:Src/tim.c     ****   * USER CODE END. Other portions of this file, whether 
  10:Src/tim.c     ****   * inserted by the user or by software development tools
  11:Src/tim.c     ****   * are owned by their respective copyright owners.
  12:Src/tim.c     ****   *
  13:Src/tim.c     ****   * COPYRIGHT(c) 2017 STMicroelectronics
  14:Src/tim.c     ****   *
  15:Src/tim.c     ****   * Redistribution and use in source and binary forms, with or without modification,
  16:Src/tim.c     ****   * are permitted provided that the following conditions are met:
  17:Src/tim.c     ****   *   1. Redistributions of source code must retain the above copyright notice,
  18:Src/tim.c     ****   *      this list of conditions and the following disclaimer.
  19:Src/tim.c     ****   *   2. Redistributions in binary form must reproduce the above copyright notice,
  20:Src/tim.c     ****   *      this list of conditions and the following disclaimer in the documentation
  21:Src/tim.c     ****   *      and/or other materials provided with the distribution.
  22:Src/tim.c     ****   *   3. Neither the name of STMicroelectronics nor the names of its contributors
  23:Src/tim.c     ****   *      may be used to endorse or promote products derived from this software
  24:Src/tim.c     ****   *      without specific prior written permission.
  25:Src/tim.c     ****   *
  26:Src/tim.c     ****   * THIS SOFTWARE IS PROVIDED BY THE COPYRIGHT HOLDERS AND CONTRIBUTORS "AS IS"
  27:Src/tim.c     ****   * AND ANY EXPRESS OR IMPLIED WARRANTIES, INCLUDING, BUT NOT LIMITED TO, THE
  28:Src/tim.c     ****   * IMPLIED WARRANTIES OF MERCHANTABILITY AND FITNESS FOR A PARTICULAR PURPOSE ARE
  29:Src/tim.c     ****   * DISCLAIMED. IN NO EVENT SHALL THE COPYRIGHT HOLDER OR CONTRIBUTORS BE LIABLE
  30:Src/tim.c     ****   * FOR ANY DIRECT, INDIRECT, INCIDENTAL, SPECIAL, EXEMPLARY, OR CONSEQUENTIAL
  31:Src/tim.c     ****   * DAMAGES (INCLUDING, BUT NOT LIMITED TO, PROCUREMENT OF SUBSTITUTE GOODS OR
  32:Src/tim.c     ****   * SERVICES; LOSS OF USE, DATA, OR PROFITS; OR BUSINESS INTERRUPTION) HOWEVER
  33:Src/tim.c     ****   * CAUSED AND ON ANY THEORY OF LIABILITY, WHETHER IN CONTRACT, STRICT LIABILITY,
ARM GAS  /tmp/ccv6Is1z.s 			page 2


  34:Src/tim.c     ****   * OR TORT (INCLUDING NEGLIGENCE OR OTHERWISE) ARISING IN ANY WAY OUT OF THE USE
  35:Src/tim.c     ****   * OF THIS SOFTWARE, EVEN IF ADVISED OF THE POSSIBILITY OF SUCH DAMAGE.
  36:Src/tim.c     ****   *
  37:Src/tim.c     ****   ******************************************************************************
  38:Src/tim.c     ****   */
  39:Src/tim.c     **** 
  40:Src/tim.c     **** /* Includes ------------------------------------------------------------------*/
  41:Src/tim.c     **** #include "tim.h"
  42:Src/tim.c     **** 
  43:Src/tim.c     **** #include "gpio.h"
  44:Src/tim.c     **** 
  45:Src/tim.c     **** /* USER CODE BEGIN 0 */
  46:Src/tim.c     **** 
  47:Src/tim.c     **** /* USER CODE END 0 */
  48:Src/tim.c     **** 
  49:Src/tim.c     **** TIM_HandleTypeDef htim4;
  50:Src/tim.c     **** 
  51:Src/tim.c     **** /* TIM4 init function */
  52:Src/tim.c     **** void MX_TIM4_Init(void)
  53:Src/tim.c     **** {
  26              		.loc 1 53 0
  27              		.cfi_startproc
  28              		@ args = 0, pretend = 0, frame = 24
  29              		@ frame_needed = 0, uses_anonymous_args = 0
  30 0000 00B5     		push	{lr}
  31              	.LCFI0:
  32              		.cfi_def_cfa_offset 4
  33              		.cfi_offset 14, -4
  34 0002 87B0     		sub	sp, sp, #28
  35              	.LCFI1:
  36              		.cfi_def_cfa_offset 32
  54:Src/tim.c     ****   TIM_MasterConfigTypeDef sMasterConfig;
  55:Src/tim.c     ****   TIM_IC_InitTypeDef sConfigIC;
  56:Src/tim.c     **** 
  57:Src/tim.c     ****   htim4.Instance = TIM4;
  37              		.loc 1 57 0
  38 0004 1D48     		ldr	r0, .L11
  39 0006 1E4B     		ldr	r3, .L11+4
  40 0008 0360     		str	r3, [r0]
  58:Src/tim.c     ****   htim4.Init.Prescaler = 0;
  41              		.loc 1 58 0
  42 000a 0023     		movs	r3, #0
  43 000c 4360     		str	r3, [r0, #4]
  59:Src/tim.c     ****   htim4.Init.CounterMode = TIM_COUNTERMODE_UP;
  44              		.loc 1 59 0
  45 000e 8360     		str	r3, [r0, #8]
  60:Src/tim.c     ****   htim4.Init.Period = 0;
  46              		.loc 1 60 0
  47 0010 C360     		str	r3, [r0, #12]
  61:Src/tim.c     ****   htim4.Init.ClockDivision = TIM_CLOCKDIVISION_DIV1;
  48              		.loc 1 61 0
  49 0012 0361     		str	r3, [r0, #16]
  62:Src/tim.c     ****   if (HAL_TIM_IC_Init(&htim4) != HAL_OK)
  50              		.loc 1 62 0
  51 0014 FFF7FEFF 		bl	HAL_TIM_IC_Init
  52              	.LVL0:
  53 0018 D8B9     		cbnz	r0, .L7
ARM GAS  /tmp/ccv6Is1z.s 			page 3


  54              	.L2:
  63:Src/tim.c     ****   {
  64:Src/tim.c     ****     _Error_Handler(__FILE__, __LINE__);
  65:Src/tim.c     ****   }
  66:Src/tim.c     **** 
  67:Src/tim.c     ****   sMasterConfig.MasterOutputTrigger = TIM_TRGO_RESET;
  55              		.loc 1 67 0
  56 001a 0023     		movs	r3, #0
  57 001c 0493     		str	r3, [sp, #16]
  68:Src/tim.c     ****   sMasterConfig.MasterSlaveMode = TIM_MASTERSLAVEMODE_DISABLE;
  58              		.loc 1 68 0
  59 001e 0593     		str	r3, [sp, #20]
  69:Src/tim.c     ****   if (HAL_TIMEx_MasterConfigSynchronization(&htim4, &sMasterConfig) != HAL_OK)
  60              		.loc 1 69 0
  61 0020 04A9     		add	r1, sp, #16
  62 0022 1648     		ldr	r0, .L11
  63 0024 FFF7FEFF 		bl	HAL_TIMEx_MasterConfigSynchronization
  64              	.LVL1:
  65 0028 C0B9     		cbnz	r0, .L8
  66              	.L3:
  70:Src/tim.c     ****   {
  71:Src/tim.c     ****     _Error_Handler(__FILE__, __LINE__);
  72:Src/tim.c     ****   }
  73:Src/tim.c     **** 
  74:Src/tim.c     ****   sConfigIC.ICPolarity = TIM_INPUTCHANNELPOLARITY_RISING;
  67              		.loc 1 74 0
  68 002a 0022     		movs	r2, #0
  69 002c 0092     		str	r2, [sp]
  75:Src/tim.c     ****   sConfigIC.ICSelection = TIM_ICSELECTION_DIRECTTI;
  70              		.loc 1 75 0
  71 002e 0123     		movs	r3, #1
  72 0030 0193     		str	r3, [sp, #4]
  76:Src/tim.c     ****   sConfigIC.ICPrescaler = TIM_ICPSC_DIV1;
  73              		.loc 1 76 0
  74 0032 0292     		str	r2, [sp, #8]
  77:Src/tim.c     ****   sConfigIC.ICFilter = 0;
  75              		.loc 1 77 0
  76 0034 0392     		str	r2, [sp, #12]
  78:Src/tim.c     ****   if (HAL_TIM_IC_ConfigChannel(&htim4, &sConfigIC, TIM_CHANNEL_1) != HAL_OK)
  77              		.loc 1 78 0
  78 0036 6946     		mov	r1, sp
  79 0038 1048     		ldr	r0, .L11
  80 003a FFF7FEFF 		bl	HAL_TIM_IC_ConfigChannel
  81              	.LVL2:
  82 003e 90B9     		cbnz	r0, .L9
  83              	.L4:
  79:Src/tim.c     ****   {
  80:Src/tim.c     ****     _Error_Handler(__FILE__, __LINE__);
  81:Src/tim.c     ****   }
  82:Src/tim.c     **** 
  83:Src/tim.c     ****   if (HAL_TIM_IC_ConfigChannel(&htim4, &sConfigIC, TIM_CHANNEL_2) != HAL_OK)
  84              		.loc 1 83 0
  85 0040 0422     		movs	r2, #4
  86 0042 6946     		mov	r1, sp
  87 0044 0D48     		ldr	r0, .L11
  88 0046 FFF7FEFF 		bl	HAL_TIM_IC_ConfigChannel
  89              	.LVL3:
ARM GAS  /tmp/ccv6Is1z.s 			page 4


  90 004a 88B9     		cbnz	r0, .L10
  91              	.L1:
  84:Src/tim.c     ****   {
  85:Src/tim.c     ****     _Error_Handler(__FILE__, __LINE__);
  86:Src/tim.c     ****   }
  87:Src/tim.c     **** 
  88:Src/tim.c     **** }
  92              		.loc 1 88 0
  93 004c 07B0     		add	sp, sp, #28
  94              	.LCFI2:
  95              		.cfi_remember_state
  96              		.cfi_def_cfa_offset 4
  97              		@ sp needed
  98 004e 5DF804FB 		ldr	pc, [sp], #4
  99              	.L7:
 100              	.LCFI3:
 101              		.cfi_restore_state
  64:Src/tim.c     ****   }
 102              		.loc 1 64 0
 103 0052 4021     		movs	r1, #64
 104 0054 0B48     		ldr	r0, .L11+8
 105 0056 FFF7FEFF 		bl	_Error_Handler
 106              	.LVL4:
 107 005a DEE7     		b	.L2
 108              	.L8:
  71:Src/tim.c     ****   }
 109              		.loc 1 71 0
 110 005c 4721     		movs	r1, #71
 111 005e 0948     		ldr	r0, .L11+8
 112 0060 FFF7FEFF 		bl	_Error_Handler
 113              	.LVL5:
 114 0064 E1E7     		b	.L3
 115              	.L9:
  80:Src/tim.c     ****   }
 116              		.loc 1 80 0
 117 0066 5021     		movs	r1, #80
 118 0068 0648     		ldr	r0, .L11+8
 119 006a FFF7FEFF 		bl	_Error_Handler
 120              	.LVL6:
 121 006e E7E7     		b	.L4
 122              	.L10:
  85:Src/tim.c     ****   }
 123              		.loc 1 85 0
 124 0070 5521     		movs	r1, #85
 125 0072 0448     		ldr	r0, .L11+8
 126 0074 FFF7FEFF 		bl	_Error_Handler
 127              	.LVL7:
 128              		.loc 1 88 0
 129 0078 E8E7     		b	.L1
 130              	.L12:
 131 007a 00BF     		.align	2
 132              	.L11:
 133 007c 00000000 		.word	htim4
 134 0080 00080040 		.word	1073743872
 135 0084 00000000 		.word	.LC0
 136              		.cfi_endproc
 137              	.LFE64:
ARM GAS  /tmp/ccv6Is1z.s 			page 5


 139              		.section	.text.HAL_TIM_IC_MspInit,"ax",%progbits
 140              		.align	1
 141              		.global	HAL_TIM_IC_MspInit
 142              		.syntax unified
 143              		.thumb
 144              		.thumb_func
 145              		.fpu softvfp
 147              	HAL_TIM_IC_MspInit:
 148              	.LFB65:
  89:Src/tim.c     **** 
  90:Src/tim.c     **** void HAL_TIM_IC_MspInit(TIM_HandleTypeDef* tim_icHandle)
  91:Src/tim.c     **** {
 149              		.loc 1 91 0
 150              		.cfi_startproc
 151              		@ args = 0, pretend = 0, frame = 24
 152              		@ frame_needed = 0, uses_anonymous_args = 0
 153              	.LVL8:
  92:Src/tim.c     **** 
  93:Src/tim.c     ****   GPIO_InitTypeDef GPIO_InitStruct;
  94:Src/tim.c     ****   if(tim_icHandle->Instance==TIM4)
 154              		.loc 1 94 0
 155 0000 0268     		ldr	r2, [r0]
 156 0002 104B     		ldr	r3, .L20
 157 0004 9A42     		cmp	r2, r3
 158 0006 00D0     		beq	.L19
 159 0008 7047     		bx	lr
 160              	.L19:
  91:Src/tim.c     **** 
 161              		.loc 1 91 0
 162 000a 00B5     		push	{lr}
 163              	.LCFI4:
 164              		.cfi_def_cfa_offset 4
 165              		.cfi_offset 14, -4
 166 000c 87B0     		sub	sp, sp, #28
 167              	.LCFI5:
 168              		.cfi_def_cfa_offset 32
 169              	.LBB2:
  95:Src/tim.c     ****   {
  96:Src/tim.c     ****   /* USER CODE BEGIN TIM4_MspInit 0 */
  97:Src/tim.c     **** 
  98:Src/tim.c     ****   /* USER CODE END TIM4_MspInit 0 */
  99:Src/tim.c     ****     /* TIM4 clock enable */
 100:Src/tim.c     ****     __HAL_RCC_TIM4_CLK_ENABLE();
 170              		.loc 1 100 0
 171 000e 03F50C33 		add	r3, r3, #143360
 172 0012 5A6A     		ldr	r2, [r3, #36]
 173 0014 42F00402 		orr	r2, r2, #4
 174 0018 5A62     		str	r2, [r3, #36]
 175 001a 5B6A     		ldr	r3, [r3, #36]
 176 001c 03F00403 		and	r3, r3, #4
 177 0020 0093     		str	r3, [sp]
 178 0022 009B     		ldr	r3, [sp]
 179              	.LBE2:
 101:Src/tim.c     ****   
 102:Src/tim.c     ****     /**TIM4 GPIO Configuration    
 103:Src/tim.c     ****     PB6     ------> TIM4_CH1
 104:Src/tim.c     ****     PB7     ------> TIM4_CH2 
ARM GAS  /tmp/ccv6Is1z.s 			page 6


 105:Src/tim.c     ****     */
 106:Src/tim.c     ****     GPIO_InitStruct.Pin = ENC_A_Pin|ENC_B_Pin;
 180              		.loc 1 106 0
 181 0024 C023     		movs	r3, #192
 182 0026 0193     		str	r3, [sp, #4]
 107:Src/tim.c     ****     GPIO_InitStruct.Mode = GPIO_MODE_AF_PP;
 183              		.loc 1 107 0
 184 0028 0223     		movs	r3, #2
 185 002a 0293     		str	r3, [sp, #8]
 108:Src/tim.c     ****     GPIO_InitStruct.Pull = GPIO_NOPULL;
 186              		.loc 1 108 0
 187 002c 0022     		movs	r2, #0
 188 002e 0392     		str	r2, [sp, #12]
 109:Src/tim.c     ****     GPIO_InitStruct.Speed = GPIO_SPEED_FREQ_LOW;
 189              		.loc 1 109 0
 190 0030 0492     		str	r2, [sp, #16]
 110:Src/tim.c     ****     GPIO_InitStruct.Alternate = GPIO_AF2_TIM4;
 191              		.loc 1 110 0
 192 0032 0593     		str	r3, [sp, #20]
 111:Src/tim.c     ****     HAL_GPIO_Init(GPIOB, &GPIO_InitStruct);
 193              		.loc 1 111 0
 194 0034 01A9     		add	r1, sp, #4
 195 0036 0448     		ldr	r0, .L20+4
 196              	.LVL9:
 197 0038 FFF7FEFF 		bl	HAL_GPIO_Init
 198              	.LVL10:
 112:Src/tim.c     **** 
 113:Src/tim.c     ****   /* USER CODE BEGIN TIM4_MspInit 1 */
 114:Src/tim.c     **** 
 115:Src/tim.c     ****   /* USER CODE END TIM4_MspInit 1 */
 116:Src/tim.c     ****   }
 117:Src/tim.c     **** }
 199              		.loc 1 117 0
 200 003c 07B0     		add	sp, sp, #28
 201              	.LCFI6:
 202              		.cfi_def_cfa_offset 4
 203              		@ sp needed
 204 003e 5DF804FB 		ldr	pc, [sp], #4
 205              	.L21:
 206 0042 00BF     		.align	2
 207              	.L20:
 208 0044 00080040 		.word	1073743872
 209 0048 00040240 		.word	1073873920
 210              		.cfi_endproc
 211              	.LFE65:
 213              		.section	.text.HAL_TIM_IC_MspDeInit,"ax",%progbits
 214              		.align	1
 215              		.global	HAL_TIM_IC_MspDeInit
 216              		.syntax unified
 217              		.thumb
 218              		.thumb_func
 219              		.fpu softvfp
 221              	HAL_TIM_IC_MspDeInit:
 222              	.LFB66:
 118:Src/tim.c     **** 
 119:Src/tim.c     **** void HAL_TIM_IC_MspDeInit(TIM_HandleTypeDef* tim_icHandle)
 120:Src/tim.c     **** {
ARM GAS  /tmp/ccv6Is1z.s 			page 7


 223              		.loc 1 120 0
 224              		.cfi_startproc
 225              		@ args = 0, pretend = 0, frame = 0
 226              		@ frame_needed = 0, uses_anonymous_args = 0
 227              	.LVL11:
 228 0000 08B5     		push	{r3, lr}
 229              	.LCFI7:
 230              		.cfi_def_cfa_offset 8
 231              		.cfi_offset 3, -8
 232              		.cfi_offset 14, -4
 121:Src/tim.c     **** 
 122:Src/tim.c     ****   if(tim_icHandle->Instance==TIM4)
 233              		.loc 1 122 0
 234 0002 0268     		ldr	r2, [r0]
 235 0004 064B     		ldr	r3, .L26
 236 0006 9A42     		cmp	r2, r3
 237 0008 00D0     		beq	.L25
 238              	.LVL12:
 239              	.L22:
 240 000a 08BD     		pop	{r3, pc}
 241              	.LVL13:
 242              	.L25:
 123:Src/tim.c     ****   {
 124:Src/tim.c     ****   /* USER CODE BEGIN TIM4_MspDeInit 0 */
 125:Src/tim.c     **** 
 126:Src/tim.c     ****   /* USER CODE END TIM4_MspDeInit 0 */
 127:Src/tim.c     ****     /* Peripheral clock disable */
 128:Src/tim.c     ****     __HAL_RCC_TIM4_CLK_DISABLE();
 243              		.loc 1 128 0
 244 000c 054A     		ldr	r2, .L26+4
 245 000e 536A     		ldr	r3, [r2, #36]
 246 0010 23F00403 		bic	r3, r3, #4
 247 0014 5362     		str	r3, [r2, #36]
 129:Src/tim.c     ****   
 130:Src/tim.c     ****     /**TIM4 GPIO Configuration    
 131:Src/tim.c     ****     PB6     ------> TIM4_CH1
 132:Src/tim.c     ****     PB7     ------> TIM4_CH2 
 133:Src/tim.c     ****     */
 134:Src/tim.c     ****     HAL_GPIO_DeInit(GPIOB, ENC_A_Pin|ENC_B_Pin);
 248              		.loc 1 134 0
 249 0016 C021     		movs	r1, #192
 250 0018 0348     		ldr	r0, .L26+8
 251              	.LVL14:
 252 001a FFF7FEFF 		bl	HAL_GPIO_DeInit
 253              	.LVL15:
 135:Src/tim.c     **** 
 136:Src/tim.c     ****   /* USER CODE BEGIN TIM4_MspDeInit 1 */
 137:Src/tim.c     **** 
 138:Src/tim.c     ****   /* USER CODE END TIM4_MspDeInit 1 */
 139:Src/tim.c     ****   }
 140:Src/tim.c     **** } 
 254              		.loc 1 140 0
 255 001e F4E7     		b	.L22
 256              	.L27:
 257              		.align	2
 258              	.L26:
 259 0020 00080040 		.word	1073743872
ARM GAS  /tmp/ccv6Is1z.s 			page 8


 260 0024 00380240 		.word	1073887232
 261 0028 00040240 		.word	1073873920
 262              		.cfi_endproc
 263              	.LFE66:
 265              		.comm	htim4,56,4
 266              		.section	.rodata.MX_TIM4_Init.str1.4,"aMS",%progbits,1
 267              		.align	2
 268              	.LC0:
 269 0000 5372632F 		.ascii	"Src/tim.c\000"
 269      74696D2E 
 269      6300
 270              		.text
 271              	.Letext0:
 272              		.file 2 "/home/ricardo/opt/gcc-arm-none-eabi-6-2017-q1-update/arm-none-eabi/include/machine/_defau
 273              		.file 3 "/home/ricardo/opt/gcc-arm-none-eabi-6-2017-q1-update/arm-none-eabi/include/sys/_stdint.h"
 274              		.file 4 "Drivers/CMSIS/Include/core_cm3.h"
 275              		.file 5 "Drivers/CMSIS/Device/ST/STM32L1xx/Include/system_stm32l1xx.h"
 276              		.file 6 "Drivers/CMSIS/Device/ST/STM32L1xx/Include/stm32l151xb.h"
 277              		.file 7 "/home/ricardo/opt/gcc-arm-none-eabi-6-2017-q1-update/arm-none-eabi/include/sys/lock.h"
 278              		.file 8 "/home/ricardo/opt/gcc-arm-none-eabi-6-2017-q1-update/arm-none-eabi/include/sys/_types.h"
 279              		.file 9 "/home/ricardo/opt/gcc-arm-none-eabi-6-2017-q1-update/lib/gcc/arm-none-eabi/6.3.1/include/
 280              		.file 10 "/home/ricardo/opt/gcc-arm-none-eabi-6-2017-q1-update/arm-none-eabi/include/sys/reent.h"
 281              		.file 11 "Drivers/STM32L1xx_HAL_Driver/Inc/stm32l1xx_hal_def.h"
 282              		.file 12 "Drivers/STM32L1xx_HAL_Driver/Inc/stm32l1xx_hal_gpio.h"
 283              		.file 13 "Drivers/STM32L1xx_HAL_Driver/Inc/stm32l1xx_hal_dma.h"
 284              		.file 14 "Drivers/STM32L1xx_HAL_Driver/Inc/stm32l1xx_hal_tim.h"
 285              		.file 15 "Drivers/STM32L1xx_HAL_Driver/Inc/stm32l1xx_hal_tim_ex.h"
 286              		.file 16 "Inc/tim.h"
ARM GAS  /tmp/ccv6Is1z.s 			page 9

